
evkbimxrt1050_glow_lenet_mnist_release_patched.axf:     file format elf32-littlearm


Disassembly of section .text:

60002000 <__Vectors>:
60002000:	00 00 e0 81 2d 23 00 60 05 23 00 60 f5 3a 00 60     ....-#.`.#.`.:.`
60002010:	0d 23 00 60 11 23 00 60 15 23 00 60 00 00 00 00     .#.`.#.`.#.`....
	...
6000202c:	19 23 00 60 1d 23 00 60 00 00 00 00 21 23 00 60     .#.`.#.`....!#.`
6000203c:	21 3b 00 60 6d 35 00 60 75 35 00 60 7d 35 00 60     !;.`m5.`u5.`}5.`
6000204c:	85 35 00 60 8d 35 00 60 95 35 00 60 9d 35 00 60     .5.`.5.`.5.`.5.`
6000205c:	a5 35 00 60 ad 35 00 60 b5 35 00 60 bd 35 00 60     .5.`.5.`.5.`.5.`
6000206c:	c5 35 00 60 cd 35 00 60 d5 35 00 60 dd 35 00 60     .5.`.5.`.5.`.5.`
6000207c:	e5 35 00 60 ed 35 00 60 f5 35 00 60 fd 35 00 60     .5.`.5.`.5.`.5.`
6000208c:	05 36 00 60 0d 36 00 60 15 36 00 60 1d 36 00 60     .6.`.6.`.6.`.6.`
6000209c:	25 36 00 60 2d 36 00 60 35 36 00 60 3d 36 00 60     %6.`-6.`56.`=6.`
600020ac:	45 36 00 60 4d 36 00 60 55 36 00 60 5d 36 00 60     E6.`M6.`U6.`]6.`
600020bc:	65 36 00 60 6d 36 00 60 75 36 00 60 7d 36 00 60     e6.`m6.`u6.`}6.`
600020cc:	85 36 00 60 8d 36 00 60 95 36 00 60 9d 36 00 60     .6.`.6.`.6.`.6.`
600020dc:	a5 36 00 60 ad 36 00 60 b5 36 00 60 bd 36 00 60     .6.`.6.`.6.`.6.`
600020ec:	c5 36 00 60 cd 36 00 60 d5 36 00 60 dd 36 00 60     .6.`.6.`.6.`.6.`
600020fc:	e5 36 00 60 ed 36 00 60 f5 36 00 60 fd 36 00 60     .6.`.6.`.6.`.6.`
6000210c:	05 37 00 60 0d 37 00 60 15 37 00 60 1d 37 00 60     .7.`.7.`.7.`.7.`
6000211c:	25 37 00 60 2d 37 00 60 35 37 00 60 3d 37 00 60     %7.`-7.`57.`=7.`
6000212c:	45 37 00 60 4d 37 00 60 55 37 00 60 5d 37 00 60     E7.`M7.`U7.`]7.`
6000213c:	65 37 00 60 6d 37 00 60 75 37 00 60 7d 37 00 60     e7.`m7.`u7.`}7.`
6000214c:	85 37 00 60 8d 37 00 60 95 37 00 60 9d 37 00 60     .7.`.7.`.7.`.7.`
6000215c:	a5 37 00 60 ad 37 00 60 b5 37 00 60 bd 37 00 60     .7.`.7.`.7.`.7.`
6000216c:	c5 37 00 60 cd 37 00 60 d5 37 00 60 dd 37 00 60     .7.`.7.`.7.`.7.`
6000217c:	e5 37 00 60 ed 37 00 60 f5 37 00 60 fd 37 00 60     .7.`.7.`.7.`.7.`
6000218c:	05 38 00 60 0d 38 00 60 15 38 00 60 1d 38 00 60     .8.`.8.`.8.`.8.`
6000219c:	25 38 00 60 2d 38 00 60 35 38 00 60 3d 38 00 60     %8.`-8.`58.`=8.`
600021ac:	45 38 00 60 4d 38 00 60 55 38 00 60 5d 38 00 60     E8.`M8.`U8.`]8.`
600021bc:	65 38 00 60 6d 38 00 60 75 38 00 60 7d 38 00 60     e8.`m8.`u8.`}8.`
600021cc:	85 38 00 60 8d 38 00 60 95 38 00 60 9d 38 00 60     .8.`.8.`.8.`.8.`
600021dc:	a5 38 00 60 ad 38 00 60 b5 38 00 60 bd 38 00 60     .8.`.8.`.8.`.8.`
600021ec:	c5 38 00 60 cd 38 00 60 d5 38 00 60 dd 38 00 60     .8.`.8.`.8.`.8.`
600021fc:	e5 38 00 60 ed 38 00 60 f5 38 00 60 fd 38 00 60     .8.`.8.`.8.`.8.`
6000220c:	05 39 00 60 0d 39 00 60 15 39 00 60 1d 39 00 60     .9.`.9.`.9.`.9.`
6000221c:	25 39 00 60 2d 39 00 60 35 39 00 60 3d 39 00 60     %9.`-9.`59.`=9.`
6000222c:	45 39 00 60 4d 39 00 60 55 39 00 60 5d 39 00 60     E9.`M9.`U9.`]9.`
6000223c:	65 39 00 60 6d 39 00 60 75 39 00 60 7d 39 00 60     e9.`m9.`u9.`}9.`
6000224c:	85 39 00 60 8d 39 00 60 95 39 00 60 9d 39 00 60     .9.`.9.`.9.`.9.`
6000225c:	a5 39 00 60 ad 39 00 60 b5 39 00 60 bd 39 00 60     .9.`.9.`.9.`.9.`
6000226c:	c5 39 00 60 cd 39 00 60 d5 39 00 60 dd 39 00 60     .9.`.9.`.9.`.9.`
6000227c:	e5 39 00 60 ed 39 00 60 f5 39 00 60 fd 39 00 60     .9.`.9.`.9.`.9.`
6000228c:	05 3a 00 60 0d 3a 00 60 15 3a 00 60 1d 3a 00 60     .:.`.:.`.:.`.:.`
6000229c:	25 3a 00 60                                         %:.`

600022a0 <__data_section_table>:
600022a0:	60006dec 	.word	0x60006dec
600022a4:	80000000 	.word	0x80000000
600022a8:	00006a4c 	.word	0x00006a4c
600022ac:	60006dec 	.word	0x60006dec
600022b0:	81e00000 	.word	0x81e00000
600022b4:	00000000 	.word	0x00000000
600022b8:	60006dec 	.word	0x60006dec
600022bc:	20000000 	.word	0x20000000
600022c0:	00000000 	.word	0x00000000
600022c4:	60006dec 	.word	0x60006dec
	...
600022d0:	60006dec 	.word	0x60006dec
600022d4:	20200000 	.word	0x20200000
600022d8:	00000000 	.word	0x00000000

600022dc <__bss_section_table>:
600022dc:	80006a80 	.word	0x80006a80
600022e0:	00008800 	.word	0x00008800
600022e4:	81e00000 	.word	0x81e00000
600022e8:	00000000 	.word	0x00000000
600022ec:	20000000 	.word	0x20000000
	...
600022fc:	20200000 	.word	0x20200000
60002300:	00000000 	.word	0x00000000

60002304 <NMI_Handler>:
60002304:	e7fe      	b.n	60002304 <NMI_Handler>
60002306:	bf00      	nop
60002308:	e7fe      	b.n	60002308 <NMI_Handler+0x4>
6000230a:	bf00      	nop

6000230c <MemManage_Handler>:
6000230c:	e7fe      	b.n	6000230c <MemManage_Handler>
6000230e:	bf00      	nop

60002310 <BusFault_Handler>:
60002310:	e7fe      	b.n	60002310 <BusFault_Handler>
60002312:	bf00      	nop

60002314 <UsageFault_Handler>:
60002314:	e7fe      	b.n	60002314 <UsageFault_Handler>
60002316:	bf00      	nop

60002318 <SVC_Handler>:
60002318:	e7fe      	b.n	60002318 <SVC_Handler>
6000231a:	bf00      	nop

6000231c <DebugMon_Handler>:
6000231c:	e7fe      	b.n	6000231c <DebugMon_Handler>
6000231e:	bf00      	nop

60002320 <PendSV_Handler>:
60002320:	e7fe      	b.n	60002320 <PendSV_Handler>
60002322:	bf00      	nop
60002324:	e7fe      	b.n	60002324 <PendSV_Handler+0x4>
60002326:	bf00      	nop

60002328 <ACMP1_DriverIRQHandler>:
60002328:	e7fe      	b.n	60002328 <ACMP1_DriverIRQHandler>
6000232a:	bf00      	nop

6000232c <ResetISR>:
6000232c:	b672      	cpsid	i
6000232e:	4b1b      	ldr	r3, [pc, #108]	; (6000239c <ResetISR+0x70>)
60002330:	f383 8808 	msr	MSP, r3
60002334:	f001 ffda 	bl	600042ec <SystemInit>
60002338:	4b19      	ldr	r3, [pc, #100]	; (600023a0 <ResetISR+0x74>)
6000233a:	4a1a      	ldr	r2, [pc, #104]	; (600023a4 <ResetISR+0x78>)
6000233c:	469c      	mov	ip, r3
6000233e:	4293      	cmp	r3, r2
60002340:	d20e      	bcs.n	60002360 <ResetISR+0x34>
60002342:	e9dc 0400 	ldrd	r0, r4, [ip]
60002346:	f10c 0c0c 	add.w	ip, ip, #12
6000234a:	f85c 1c04 	ldr.w	r1, [ip, #-4]
6000234e:	b129      	cbz	r1, 6000235c <ResetISR+0x30>
60002350:	2300      	movs	r3, #0
60002352:	58c5      	ldr	r5, [r0, r3]
60002354:	50e5      	str	r5, [r4, r3]
60002356:	3304      	adds	r3, #4
60002358:	4299      	cmp	r1, r3
6000235a:	d8fa      	bhi.n	60002352 <ResetISR+0x26>
6000235c:	4594      	cmp	ip, r2
6000235e:	d3f0      	bcc.n	60002342 <ResetISR+0x16>
60002360:	4b11      	ldr	r3, [pc, #68]	; (600023a8 <ResetISR+0x7c>)
60002362:	459c      	cmp	ip, r3
60002364:	d215      	bcs.n	60002392 <ResetISR+0x66>
60002366:	3b01      	subs	r3, #1
60002368:	f10c 0210 	add.w	r2, ip, #16
6000236c:	f10c 0408 	add.w	r4, ip, #8
60002370:	2000      	movs	r0, #0
60002372:	eba3 0c0c 	sub.w	ip, r3, ip
60002376:	f02c 0c07 	bic.w	ip, ip, #7
6000237a:	4494      	add	ip, r2
6000237c:	e954 1202 	ldrd	r1, r2, [r4, #-8]
60002380:	b122      	cbz	r2, 6000238c <ResetISR+0x60>
60002382:	2300      	movs	r3, #0
60002384:	50c8      	str	r0, [r1, r3]
60002386:	3304      	adds	r3, #4
60002388:	429a      	cmp	r2, r3
6000238a:	d8fb      	bhi.n	60002384 <ResetISR+0x58>
6000238c:	3408      	adds	r4, #8
6000238e:	4564      	cmp	r4, ip
60002390:	d1f4      	bne.n	6000237c <ResetISR+0x50>
60002392:	b662      	cpsie	i
60002394:	f004 f986 	bl	600066a4 <__main>
60002398:	e7fe      	b.n	60002398 <ResetISR+0x6c>
6000239a:	bf00      	nop
6000239c:	81e00000 	.word	0x81e00000
600023a0:	600022a0 	.word	0x600022a0
600023a4:	600022dc 	.word	0x600022dc
600023a8:	60002304 	.word	0x60002304
600023ac:	ffffffff 	.word	0xffffffff

600023b0 <ldexp>:
600023b0:	eeb5 0b40 	vcmp.f64	d0, #0.0
600023b4:	eef1 fa10 	vmrs	APSR_nzcv, fpscr
600023b8:	d102      	bne.n	600023c0 <ldexp+0x10>
600023ba:	ed9f 0b0d 	vldr	d0, [pc, #52]	; 600023f0 <ldexp+0x40>
600023be:	4770      	bx	lr
600023c0:	ec53 2b10 	vmov	r2, r3, d0
600023c4:	f3c3 510a 	ubfx	r1, r3, #20, #11
600023c8:	4408      	add	r0, r1
600023ca:	f240 71fe 	movw	r1, #2046	; 0x7fe
600023ce:	4288      	cmp	r0, r1
600023d0:	dd05      	ble.n	600023de <ldexp+0x2e>
600023d2:	4b0b      	ldr	r3, [pc, #44]	; (60002400 <ldexp+0x50>)
600023d4:	2222      	movs	r2, #34	; 0x22
600023d6:	ed9f 0b08 	vldr	d0, [pc, #32]	; 600023f8 <ldexp+0x48>
600023da:	601a      	str	r2, [r3, #0]
600023dc:	4770      	bx	lr
600023de:	2800      	cmp	r0, #0
600023e0:	ddeb      	ble.n	600023ba <ldexp+0xa>
600023e2:	f360 531e 	bfi	r3, r0, #20, #11
600023e6:	ec43 2b10 	vmov	d0, r2, r3
600023ea:	4770      	bx	lr
600023ec:	f3af 8000 	nop.w
	...
600023fc:	7ff00000 	.word	0x7ff00000
60002400:	8000f1c8 	.word	0x8000f1c8
60002404:	ffffffff 	.word	0xffffffff

60002408 <modf>:
60002408:	ed9f 7b1b 	vldr	d7, [pc, #108]	; 60002478 <modf+0x70>
6000240c:	b510      	push	{r4, lr}
6000240e:	eeb4 0b47 	vcmp.f64	d0, d7
60002412:	eef1 fa10 	vmrs	APSR_nzcv, fpscr
60002416:	d104      	bne.n	60002422 <modf+0x1a>
60002418:	ed80 7b00 	vstr	d7, [r0]
6000241c:	eeb0 0b47 	vmov.f64	d0, d7
60002420:	e009      	b.n	60002436 <modf+0x2e>
60002422:	ec53 2b10 	vmov	r2, r3, d0
60002426:	f3c3 540a 	ubfx	r4, r3, #20, #11
6000242a:	f2a4 31ff 	subw	r1, r4, #1023	; 0x3ff
6000242e:	2900      	cmp	r1, #0
60002430:	da02      	bge.n	60002438 <modf+0x30>
60002432:	ed80 7b00 	vstr	d7, [r0]
60002436:	bd10      	pop	{r4, pc}
60002438:	2933      	cmp	r1, #51	; 0x33
6000243a:	dd02      	ble.n	60002442 <modf+0x3a>
6000243c:	ed80 0b00 	vstr	d0, [r0]
60002440:	e7ec      	b.n	6000241c <modf+0x14>
60002442:	2913      	cmp	r1, #19
60002444:	dd0e      	ble.n	60002464 <modf+0x5c>
60002446:	f2a4 4413 	subw	r4, r4, #1043	; 0x413
6000244a:	f04f 31ff 	mov.w	r1, #4294967295	; 0xffffffff
6000244e:	fa21 f404 	lsr.w	r4, r1, r4
60002452:	ea22 0204 	bic.w	r2, r2, r4
60002456:	ec43 2b17 	vmov	d7, r2, r3
6000245a:	ee30 0b47 	vsub.f64	d0, d0, d7
6000245e:	e9c0 2300 	strd	r2, r3, [r0]
60002462:	e7e8      	b.n	60002436 <modf+0x2e>
60002464:	4c06      	ldr	r4, [pc, #24]	; (60002480 <modf+0x78>)
60002466:	2200      	movs	r2, #0
60002468:	410c      	asrs	r4, r1
6000246a:	f3c3 0113 	ubfx	r1, r3, #0, #20
6000246e:	ea21 0104 	bic.w	r1, r1, r4
60002472:	f361 0313 	bfi	r3, r1, #0, #20
60002476:	e7ee      	b.n	60002456 <modf+0x4e>
	...
60002480:	000fffff 	.word	0x000fffff
60002484:	ffffffff 	.word	0xffffffff

60002488 <pow>:
60002488:	eeb7 7b00 	vmov.f64	d7, #112	; 0x3f800000  1.0
6000248c:	b530      	push	{r4, r5, lr}
6000248e:	eeb4 1b47 	vcmp.f64	d1, d7
60002492:	ed2d 8b02 	vpush	{d8}
60002496:	eef1 fa10 	vmrs	APSR_nzcv, fpscr
6000249a:	b083      	sub	sp, #12
6000249c:	eeb0 8b41 	vmov.f64	d8, d1
600024a0:	d01a      	beq.n	600024d8 <pow+0x50>
600024a2:	eeb5 0bc0 	vcmpe.f64	d0, #0.0
600024a6:	eef1 fa10 	vmrs	APSR_nzcv, fpscr
600024aa:	d84b      	bhi.n	60002544 <pow+0xbc>
600024ac:	eeb5 0b40 	vcmp.f64	d0, #0.0
600024b0:	eef1 fa10 	vmrs	APSR_nzcv, fpscr
600024b4:	d114      	bne.n	600024e0 <pow+0x58>
600024b6:	eeb5 1bc0 	vcmpe.f64	d1, #0.0
600024ba:	eef1 fa10 	vmrs	APSR_nzcv, fpscr
600024be:	f200 80e6 	bhi.w	6000268e <pow+0x206>
600024c2:	eeb5 1b40 	vcmp.f64	d1, #0.0
600024c6:	4bc6      	ldr	r3, [pc, #792]	; (600027e0 <pow+0x358>)
600024c8:	2221      	movs	r2, #33	; 0x21
600024ca:	eef1 fa10 	vmrs	APSR_nzcv, fpscr
600024ce:	601a      	str	r2, [r3, #0]
600024d0:	f000 8132 	beq.w	60002738 <pow+0x2b0>
600024d4:	ed9f 0b9a 	vldr	d0, [pc, #616]	; 60002740 <pow+0x2b8>
600024d8:	b003      	add	sp, #12
600024da:	ecbd 8b02 	vpop	{d8}
600024de:	bd30      	pop	{r4, r5, pc}
600024e0:	ed9f 7b99 	vldr	d7, [pc, #612]	; 60002748 <pow+0x2c0>
600024e4:	eeb4 1bc7 	vcmpe.f64	d1, d7
600024e8:	eef1 fa10 	vmrs	APSR_nzcv, fpscr
600024ec:	d40f      	bmi.n	6000250e <pow+0x86>
600024ee:	ed9f 7b98 	vldr	d7, [pc, #608]	; 60002750 <pow+0x2c8>
600024f2:	eeb4 1bc7 	vcmpe.f64	d1, d7
600024f6:	eef1 fa10 	vmrs	APSR_nzcv, fpscr
600024fa:	dc08      	bgt.n	6000250e <pow+0x86>
600024fc:	eefd 7bc1 	vcvt.s32.f64	s15, d1
60002500:	eeb8 6be7 	vcvt.f64.s32	d6, s15
60002504:	eeb4 6b41 	vcmp.f64	d6, d1
60002508:	eef1 fa10 	vmrs	APSR_nzcv, fpscr
6000250c:	d003      	beq.n	60002516 <pow+0x8e>
6000250e:	4bb4      	ldr	r3, [pc, #720]	; (600027e0 <pow+0x358>)
60002510:	2221      	movs	r2, #33	; 0x21
60002512:	601a      	str	r2, [r3, #0]
60002514:	e7de      	b.n	600024d4 <pow+0x4c>
60002516:	ee17 3a90 	vmov	r3, s15
6000251a:	eeb1 0b40 	vneg.f64	d0, d0
6000251e:	f003 0501 	and.w	r5, r3, #1
60002522:	eeb0 7b00 	vmov.f64	d7, #0	; 0x40000000  2.0
60002526:	eeb4 8b47 	vcmp.f64	d8, d7
6000252a:	eef1 fa10 	vmrs	APSR_nzcv, fpscr
6000252e:	d10b      	bne.n	60002548 <pow+0xc0>
60002530:	ed9f 7b89 	vldr	d7, [pc, #548]	; 60002758 <pow+0x2d0>
60002534:	eeb4 0bc7 	vcmpe.f64	d0, d7
60002538:	eef1 fa10 	vmrs	APSR_nzcv, fpscr
6000253c:	d504      	bpl.n	60002548 <pow+0xc0>
6000253e:	ee20 0b00 	vmul.f64	d0, d0, d0
60002542:	e7c9      	b.n	600024d8 <pow+0x50>
60002544:	2500      	movs	r5, #0
60002546:	e7ec      	b.n	60002522 <pow+0x9a>
60002548:	a801      	add	r0, sp, #4
6000254a:	f000 f951 	bl	600027f0 <frexp>
6000254e:	4aa5      	ldr	r2, [pc, #660]	; (600027e4 <pow+0x35c>)
60002550:	eeb3 1b00 	vmov.f64	d1, #48	; 0x41800000  16.0
60002554:	ed9f 7b82 	vldr	d7, [pc, #520]	; 60002760 <pow+0x2d8>
60002558:	ed9f 3b83 	vldr	d3, [pc, #524]	; 60002768 <pow+0x2e0>
6000255c:	eeb4 0bc7 	vcmpe.f64	d0, d7
60002560:	eef1 fa10 	vmrs	APSR_nzcv, fpscr
60002564:	bf94      	ite	ls
60002566:	2308      	movls	r3, #8
60002568:	2300      	movhi	r3, #0
6000256a:	1d19      	adds	r1, r3, #4
6000256c:	eb02 00c1 	add.w	r0, r2, r1, lsl #3
60002570:	ed90 7b00 	vldr	d7, [r0]
60002574:	eeb4 7b40 	vcmp.f64	d7, d0
60002578:	eef1 fa10 	vmrs	APSR_nzcv, fpscr
6000257c:	bfa8      	it	ge
6000257e:	460b      	movge	r3, r1
60002580:	1c99      	adds	r1, r3, #2
60002582:	eb02 00c1 	add.w	r0, r2, r1, lsl #3
60002586:	ed90 7b00 	vldr	d7, [r0]
6000258a:	eeb4 7b40 	vcmp.f64	d7, d0
6000258e:	eef1 fa10 	vmrs	APSR_nzcv, fpscr
60002592:	bfa8      	it	ge
60002594:	460b      	movge	r3, r1
60002596:	eb02 01c3 	add.w	r1, r2, r3, lsl #3
6000259a:	1058      	asrs	r0, r3, #1
6000259c:	ed91 7b02 	vldr	d7, [r1, #8]
600025a0:	4991      	ldr	r1, [pc, #580]	; (600027e8 <pow+0x360>)
600025a2:	eb01 01c0 	add.w	r1, r1, r0, lsl #3
600025a6:	ee30 6b47 	vsub.f64	d6, d0, d7
600025aa:	ed91 5b00 	vldr	d5, [r1]
600025ae:	9901      	ldr	r1, [sp, #4]
600025b0:	ee36 6b45 	vsub.f64	d6, d6, d5
600025b4:	ebc3 1301 	rsb	r3, r3, r1, lsl #4
600025b8:	eeb6 5b00 	vmov.f64	d5, #96	; 0x3f000000  0.5
600025bc:	498b      	ldr	r1, [pc, #556]	; (600027ec <pow+0x364>)
600025be:	3b01      	subs	r3, #1
600025c0:	ee27 7b05 	vmul.f64	d7, d7, d5
600025c4:	eea0 7b05 	vfma.f64	d7, d0, d5
600025c8:	ed9f 5b69 	vldr	d5, [pc, #420]	; 60002770 <pow+0x2e8>
600025cc:	ee86 2b07 	vdiv.f64	d2, d6, d7
600025d0:	ed9f 7b69 	vldr	d7, [pc, #420]	; 60002778 <pow+0x2f0>
600025d4:	ee22 6b02 	vmul.f64	d6, d2, d2
600025d8:	eea6 7b05 	vfma.f64	d7, d6, d5
600025dc:	ed9f 5b68 	vldr	d5, [pc, #416]	; 60002780 <pow+0x2f8>
600025e0:	eea7 5b06 	vfma.f64	d5, d7, d6
600025e4:	ed9f 7b68 	vldr	d7, [pc, #416]	; 60002788 <pow+0x300>
600025e8:	eea5 7b06 	vfma.f64	d7, d5, d6
600025ec:	ee27 7b06 	vmul.f64	d7, d7, d6
600025f0:	ed9f 6b67 	vldr	d6, [pc, #412]	; 60002790 <pow+0x308>
600025f4:	ee27 7b02 	vmul.f64	d7, d7, d2
600025f8:	eea7 7b06 	vfma.f64	d7, d7, d6
600025fc:	eea2 7b06 	vfma.f64	d7, d2, d6
60002600:	eeb0 4b47 	vmov.f64	d4, d7
60002604:	ee07 3a90 	vmov	s15, r3
60002608:	eeb8 5be7 	vcvt.f64.s32	d5, s15
6000260c:	ee28 7b01 	vmul.f64	d7, d8, d1
60002610:	ee25 5b03 	vmul.f64	d5, d5, d3
60002614:	eebd 7bc7 	vcvt.s32.f64	s14, d7
60002618:	ee34 4b02 	vadd.f64	d4, d4, d2
6000261c:	eeb8 7bc7 	vcvt.f64.s32	d7, s14
60002620:	ee27 0b03 	vmul.f64	d0, d7, d3
60002624:	ee38 7b40 	vsub.f64	d7, d8, d0
60002628:	ee27 7b05 	vmul.f64	d7, d7, d5
6000262c:	eea8 7b04 	vfma.f64	d7, d8, d4
60002630:	ee27 6b01 	vmul.f64	d6, d7, d1
60002634:	eebd 6bc6 	vcvt.s32.f64	s12, d6
60002638:	eeb8 6bc6 	vcvt.f64.s32	d6, s12
6000263c:	eea6 7b43 	vfms.f64	d7, d6, d3
60002640:	eeb0 2b47 	vmov.f64	d2, d7
60002644:	ee25 7b00 	vmul.f64	d7, d5, d0
60002648:	eea6 7b03 	vfma.f64	d7, d6, d3
6000264c:	ee27 4b01 	vmul.f64	d4, d7, d1
60002650:	eebd 4bc4 	vcvt.s32.f64	s8, d4
60002654:	eeb8 4bc4 	vcvt.f64.s32	d4, s8
60002658:	eea4 7b43 	vfms.f64	d7, d4, d3
6000265c:	ee37 7b02 	vadd.f64	d7, d7, d2
60002660:	ee27 5b01 	vmul.f64	d5, d7, d1
60002664:	eebd 5bc5 	vcvt.s32.f64	s10, d5
60002668:	eeb8 5bc5 	vcvt.f64.s32	d5, s10
6000266c:	ee25 5b03 	vmul.f64	d5, d5, d3
60002670:	eeb0 6b45 	vmov.f64	d6, d5
60002674:	eea4 6b03 	vfma.f64	d6, d4, d3
60002678:	ee26 6b01 	vmul.f64	d6, d6, d1
6000267c:	eefd 6bc6 	vcvt.s32.f64	s13, d6
60002680:	ee16 3a90 	vmov	r3, s13
60002684:	428b      	cmp	r3, r1
60002686:	da05      	bge.n	60002694 <pow+0x20c>
60002688:	4b55      	ldr	r3, [pc, #340]	; (600027e0 <pow+0x358>)
6000268a:	2222      	movs	r2, #34	; 0x22
6000268c:	601a      	str	r2, [r3, #0]
6000268e:	ed9f 0b42 	vldr	d0, [pc, #264]	; 60002798 <pow+0x310>
60002692:	e721      	b.n	600024d8 <pow+0x50>
60002694:	ee37 7b45 	vsub.f64	d7, d7, d5
60002698:	a801      	add	r0, sp, #4
6000269a:	ed9f 6b41 	vldr	d6, [pc, #260]	; 600027a0 <pow+0x318>
6000269e:	eeb5 7bc0 	vcmpe.f64	d7, #0.0
600026a2:	ed9f 5b41 	vldr	d5, [pc, #260]	; 600027a8 <pow+0x320>
600026a6:	eef1 fa10 	vmrs	APSR_nzcv, fpscr
600026aa:	bfc4      	itt	gt
600026ac:	ee37 7b43 	vsubgt.f64	d7, d7, d3
600026b0:	3301      	addgt	r3, #1
600026b2:	2b00      	cmp	r3, #0
600026b4:	eea7 5b06 	vfma.f64	d5, d7, d6
600026b8:	bfb5      	itete	lt
600026ba:	f103 040f 	addlt.w	r4, r3, #15
600026be:	111c      	asrge	r4, r3, #4
600026c0:	1124      	asrlt	r4, r4, #4
600026c2:	3401      	addge	r4, #1
600026c4:	ed9f 6b3a 	vldr	d6, [pc, #232]	; 600027b0 <pow+0x328>
600026c8:	ebc3 1304 	rsb	r3, r3, r4, lsl #4
600026cc:	eb02 03c3 	add.w	r3, r2, r3, lsl #3
600026d0:	eea5 6b07 	vfma.f64	d6, d5, d7
600026d4:	ed9f 5b38 	vldr	d5, [pc, #224]	; 600027b8 <pow+0x330>
600026d8:	ed93 0b00 	vldr	d0, [r3]
600026dc:	eea6 5b07 	vfma.f64	d5, d6, d7
600026e0:	ed9f 6b37 	vldr	d6, [pc, #220]	; 600027c0 <pow+0x338>
600026e4:	eea5 6b07 	vfma.f64	d6, d5, d7
600026e8:	ed9f 5b37 	vldr	d5, [pc, #220]	; 600027c8 <pow+0x340>
600026ec:	eea6 5b07 	vfma.f64	d5, d6, d7
600026f0:	ed9f 6b37 	vldr	d6, [pc, #220]	; 600027d0 <pow+0x348>
600026f4:	eea5 6b07 	vfma.f64	d6, d5, d7
600026f8:	ee26 7b07 	vmul.f64	d7, d6, d7
600026fc:	eea0 0b07 	vfma.f64	d0, d0, d7
60002700:	f000 f876 	bl	600027f0 <frexp>
60002704:	9801      	ldr	r0, [sp, #4]
60002706:	4420      	add	r0, r4
60002708:	f5b0 6f80 	cmp.w	r0, #1024	; 0x400
6000270c:	dd08      	ble.n	60002720 <pow+0x298>
6000270e:	4b34      	ldr	r3, [pc, #208]	; (600027e0 <pow+0x358>)
60002710:	2222      	movs	r2, #34	; 0x22
60002712:	601a      	str	r2, [r3, #0]
60002714:	2d00      	cmp	r5, #0
60002716:	f47f aedd 	bne.w	600024d4 <pow+0x4c>
6000271a:	ed9f 0b2f 	vldr	d0, [pc, #188]	; 600027d8 <pow+0x350>
6000271e:	e6db      	b.n	600024d8 <pow+0x50>
60002720:	f46f 737f 	mvn.w	r3, #1020	; 0x3fc
60002724:	4298      	cmp	r0, r3
60002726:	dbaf      	blt.n	60002688 <pow+0x200>
60002728:	f7ff fe42 	bl	600023b0 <ldexp>
6000272c:	2d00      	cmp	r5, #0
6000272e:	f43f aed3 	beq.w	600024d8 <pow+0x50>
60002732:	eeb1 0b40 	vneg.f64	d0, d0
60002736:	e6cf      	b.n	600024d8 <pow+0x50>
60002738:	eeb0 0b47 	vmov.f64	d0, d7
6000273c:	e6cc      	b.n	600024d8 <pow+0x50>
6000273e:	bf00      	nop
60002740:	00000000 	.word	0x00000000
60002744:	fff00000 	.word	0xfff00000
60002748:	00000000 	.word	0x00000000
6000274c:	c1e00000 	.word	0xc1e00000
60002750:	ffc00000 	.word	0xffc00000
60002754:	41dfffff 	.word	0x41dfffff
60002758:	78b58c40 	.word	0x78b58c40
6000275c:	4415af1d 	.word	0x4415af1d
60002760:	667f3bcd 	.word	0x667f3bcd
60002764:	3fe6a09e 	.word	0x3fe6a09e
60002768:	00000000 	.word	0x00000000
6000276c:	3fb00000 	.word	0x3fb00000
60002770:	db4afc28 	.word	0xdb4afc28
60002774:	3f3c78fd 	.word	0x3f3c78fd
60002778:	2e278dac 	.word	0x2e278dac
6000277c:	3f624924 	.word	0x3f624924
60002780:	999e080e 	.word	0x999e080e
60002784:	3f899999 	.word	0x3f899999
60002788:	5555554d 	.word	0x5555554d
6000278c:	3fb55555 	.word	0x3fb55555
60002790:	94ae0bf8 	.word	0x94ae0bf8
60002794:	3fdc551d 	.word	0x3fdc551d
	...
600027a0:	e392cc80 	.word	0xe392cc80
600027a4:	3eef4edd 	.word	0x3eef4edd
600027a8:	e0384c74 	.word	0xe0384c74
600027ac:	3f242f7a 	.word	0x3f242f7a
600027b0:	18d7cd9f 	.word	0x18d7cd9f
600027b4:	3f55d87e 	.word	0x3f55d87e
600027b8:	6e131d98 	.word	0x6e131d98
600027bc:	3f83b2ab 	.word	0x3f83b2ab
600027c0:	d703026d 	.word	0xd703026d
600027c4:	3fac6b08 	.word	0x3fac6b08
600027c8:	ff82c4ce 	.word	0xff82c4ce
600027cc:	3fcebfbd 	.word	0x3fcebfbd
600027d0:	fefa39ef 	.word	0xfefa39ef
600027d4:	3fe62e42 	.word	0x3fe62e42
600027d8:	00000000 	.word	0x00000000
600027dc:	7ff00000 	.word	0x7ff00000
600027e0:	8000f1c8 	.word	0x8000f1c8
600027e4:	60006c58 	.word	0x60006c58
600027e8:	60006ce0 	.word	0x60006ce0
600027ec:	ffffc020 	.word	0xffffc020

600027f0 <frexp>:
600027f0:	eeb5 0b40 	vcmp.f64	d0, #0.0
600027f4:	b5f0      	push	{r4, r5, r6, r7, lr}
600027f6:	eef1 fa10 	vmrs	APSR_nzcv, fpscr
600027fa:	d104      	bne.n	60002806 <frexp+0x16>
600027fc:	2300      	movs	r3, #0
600027fe:	ed9f 0b12 	vldr	d0, [pc, #72]	; 60002848 <frexp+0x58>
60002802:	6003      	str	r3, [r0, #0]
60002804:	bdf0      	pop	{r4, r5, r6, r7, pc}
60002806:	ec55 4b10 	vmov	r4, r5, d0
6000280a:	f3c5 530a 	ubfx	r3, r5, #20, #11
6000280e:	f2a3 31fe 	subw	r1, r3, #1022	; 0x3fe
60002812:	b98b      	cbnz	r3, 60002838 <frexp+0x48>
60002814:	f3c5 0213 	ubfx	r2, r5, #0, #20
60002818:	ee10 3a10 	vmov	r3, s0
6000281c:	0fdf      	lsrs	r7, r3, #31
6000281e:	f402 2600 	and.w	r6, r2, #524288	; 0x80000
60002822:	005b      	lsls	r3, r3, #1
60002824:	ea47 0242 	orr.w	r2, r7, r2, lsl #1
60002828:	f3c2 0213 	ubfx	r2, r2, #0, #20
6000282c:	b90e      	cbnz	r6, 60002832 <frexp+0x42>
6000282e:	3901      	subs	r1, #1
60002830:	e7f4      	b.n	6000281c <frexp+0x2c>
60002832:	f362 0513 	bfi	r5, r2, #0, #20
60002836:	461c      	mov	r4, r3
60002838:	f240 33fe 	movw	r3, #1022	; 0x3fe
6000283c:	6001      	str	r1, [r0, #0]
6000283e:	f363 551e 	bfi	r5, r3, #20, #11
60002842:	ec45 4b10 	vmov	d0, r4, r5
60002846:	e7dd      	b.n	60002804 <frexp+0x14>
	...

60002850 <DbgConsole_Init>:
60002850:	2a01      	cmp	r2, #1
60002852:	d001      	beq.n	60002858 <DbgConsole_Init+0x8>
60002854:	2001      	movs	r0, #1
60002856:	4770      	bx	lr
60002858:	b570      	push	{r4, r5, r6, lr}
6000285a:	b084      	sub	sp, #16
6000285c:	4e0b      	ldr	r6, [pc, #44]	; (6000288c <DbgConsole_Init+0x3c>)
6000285e:	460c      	mov	r4, r1
60002860:	2500      	movs	r5, #0
60002862:	9300      	str	r3, [sp, #0]
60002864:	4669      	mov	r1, sp
60002866:	4b0a      	ldr	r3, [pc, #40]	; (60002890 <DbgConsole_Init+0x40>)
60002868:	f88d 000e 	strb.w	r0, [sp, #14]
6000286c:	4630      	mov	r0, r6
6000286e:	9302      	str	r3, [sp, #8]
60002870:	7432      	strb	r2, [r6, #16]
60002872:	9401      	str	r4, [sp, #4]
60002874:	f8ad 500c 	strh.w	r5, [sp, #12]
60002878:	f001 fddc 	bl	60004434 <HAL_UartInit>
6000287c:	4a05      	ldr	r2, [pc, #20]	; (60002894 <DbgConsole_Init+0x44>)
6000287e:	4628      	mov	r0, r5
60002880:	4b05      	ldr	r3, [pc, #20]	; (60002898 <DbgConsole_Init+0x48>)
60002882:	e9c6 2302 	strd	r2, r3, [r6, #8]
60002886:	b004      	add	sp, #16
60002888:	bd70      	pop	{r4, r5, r6, pc}
6000288a:	bf00      	nop
6000288c:	8000f180 	.word	0x8000f180
60002890:	01010000 	.word	0x01010000
60002894:	600044d1 	.word	0x600044d1
60002898:	600044b1 	.word	0x600044b1

6000289c <DbgConsole_Printf>:
6000289c:	b40f      	push	{r0, r1, r2, r3}
6000289e:	e92d 4ff0 	stmdb	sp!, {r4, r5, r6, r7, r8, r9, sl, fp, lr}
600028a2:	f8df b7a0 	ldr.w	fp, [pc, #1952]	; 60003044 <DbgConsole_Printf+0x7a8>
600028a6:	ed2d 8b0a 	vpush	{d8-d12}
600028aa:	f89b 3010 	ldrb.w	r3, [fp, #16]
600028ae:	b09b      	sub	sp, #108	; 0x6c
600028b0:	9e2e      	ldr	r6, [sp, #184]	; 0xb8
600028b2:	2b00      	cmp	r3, #0
600028b4:	f000 80ad 	beq.w	60002a12 <DbgConsole_Printf+0x176>
600028b8:	aa2f      	add	r2, sp, #188	; 0xbc
600028ba:	7833      	ldrb	r3, [r6, #0]
600028bc:	9202      	str	r2, [sp, #8]
600028be:	920d      	str	r2, [sp, #52]	; 0x34
600028c0:	2b00      	cmp	r3, #0
600028c2:	f000 80a8 	beq.w	60002a16 <DbgConsole_Printf+0x17a>
600028c6:	2200      	movs	r2, #0
600028c8:	4690      	mov	r8, r2
600028ca:	920a      	str	r2, [sp, #40]	; 0x28
600028cc:	9206      	str	r2, [sp, #24]
600028ce:	9201      	str	r2, [sp, #4]
600028d0:	e011      	b.n	600028f6 <DbgConsole_Printf+0x5a>
600028d2:	f89b 2010 	ldrb.w	r2, [fp, #16]
600028d6:	930e      	str	r3, [sp, #56]	; 0x38
600028d8:	b12a      	cbz	r2, 600028e6 <DbgConsole_Printf+0x4a>
600028da:	f8db 3008 	ldr.w	r3, [fp, #8]
600028de:	2201      	movs	r2, #1
600028e0:	a90e      	add	r1, sp, #56	; 0x38
600028e2:	4658      	mov	r0, fp
600028e4:	4798      	blx	r3
600028e6:	9b01      	ldr	r3, [sp, #4]
600028e8:	3601      	adds	r6, #1
600028ea:	3301      	adds	r3, #1
600028ec:	9301      	str	r3, [sp, #4]
600028ee:	7833      	ldrb	r3, [r6, #0]
600028f0:	2b00      	cmp	r3, #0
600028f2:	f000 8091 	beq.w	60002a18 <DbgConsole_Printf+0x17c>
600028f6:	2b25      	cmp	r3, #37	; 0x25
600028f8:	d1eb      	bne.n	600028d2 <DbgConsole_Printf+0x36>
600028fa:	2500      	movs	r5, #0
600028fc:	f816 4f01 	ldrb.w	r4, [r6, #1]!
60002900:	f1a4 0320 	sub.w	r3, r4, #32
60002904:	2b10      	cmp	r3, #16
60002906:	d80a      	bhi.n	6000291e <DbgConsole_Printf+0x82>
60002908:	e8df f003 	tbb	[pc, r3]
6000290c:	24090927 	.word	0x24090927
60002910:	09090909 	.word	0x09090909
60002914:	21090909 	.word	0x21090909
60002918:	09091e09 	.word	0x09091e09
6000291c:	1b          	.byte	0x1b
6000291d:	00          	.byte	0x00
6000291e:	f04f 0a00 	mov.w	sl, #0
60002922:	4657      	mov	r7, sl
60002924:	f1a4 0130 	sub.w	r1, r4, #48	; 0x30
60002928:	eb07 0387 	add.w	r3, r7, r7, lsl #2
6000292c:	1e70      	subs	r0, r6, #1
6000292e:	4632      	mov	r2, r6
60002930:	2909      	cmp	r1, #9
60002932:	eb04 0343 	add.w	r3, r4, r3, lsl #1
60002936:	d813      	bhi.n	60002960 <DbgConsole_Printf+0xc4>
60002938:	f1a3 0730 	sub.w	r7, r3, #48	; 0x30
6000293c:	f816 4f01 	ldrb.w	r4, [r6, #1]!
60002940:	e7f0      	b.n	60002924 <DbgConsole_Printf+0x88>
60002942:	f045 0508 	orr.w	r5, r5, #8
60002946:	e7d9      	b.n	600028fc <DbgConsole_Printf+0x60>
60002948:	f045 0501 	orr.w	r5, r5, #1
6000294c:	e7d6      	b.n	600028fc <DbgConsole_Printf+0x60>
6000294e:	f045 0502 	orr.w	r5, r5, #2
60002952:	e7d3      	b.n	600028fc <DbgConsole_Printf+0x60>
60002954:	f045 0510 	orr.w	r5, r5, #16
60002958:	e7d0      	b.n	600028fc <DbgConsole_Printf+0x60>
6000295a:	f045 0504 	orr.w	r5, r5, #4
6000295e:	e7cd      	b.n	600028fc <DbgConsole_Printf+0x60>
60002960:	2c2a      	cmp	r4, #42	; 0x2a
60002962:	d051      	beq.n	60002a08 <DbgConsole_Printf+0x16c>
60002964:	2c2e      	cmp	r4, #46	; 0x2e
60002966:	46ba      	mov	sl, r7
60002968:	9003      	str	r0, [sp, #12]
6000296a:	f000 8112 	beq.w	60002b92 <DbgConsole_Printf+0x2f6>
6000296e:	2306      	movs	r3, #6
60002970:	2c68      	cmp	r4, #104	; 0x68
60002972:	f04f 0600 	mov.w	r6, #0
60002976:	9304      	str	r3, [sp, #16]
60002978:	f000 8125 	beq.w	60002bc6 <DbgConsole_Printf+0x32a>
6000297c:	2c6c      	cmp	r4, #108	; 0x6c
6000297e:	d107      	bne.n	60002990 <DbgConsole_Printf+0xf4>
60002980:	9b03      	ldr	r3, [sp, #12]
60002982:	789c      	ldrb	r4, [r3, #2]
60002984:	2c6c      	cmp	r4, #108	; 0x6c
60002986:	f000 8155 	beq.w	60002c34 <DbgConsole_Printf+0x398>
6000298a:	f045 0580 	orr.w	r5, r5, #128	; 0x80
6000298e:	9203      	str	r2, [sp, #12]
60002990:	2c64      	cmp	r4, #100	; 0x64
60002992:	d049      	beq.n	60002a28 <DbgConsole_Printf+0x18c>
60002994:	2c69      	cmp	r4, #105	; 0x69
60002996:	d047      	beq.n	60002a28 <DbgConsole_Printf+0x18c>
60002998:	f004 03df 	and.w	r3, r4, #223	; 0xdf
6000299c:	2b46      	cmp	r3, #70	; 0x46
6000299e:	f040 8138 	bne.w	60002c12 <DbgConsole_Printf+0x376>
600029a2:	f005 0301 	and.w	r3, r5, #1
600029a6:	9305      	str	r3, [sp, #20]
600029a8:	f005 0308 	and.w	r3, r5, #8
600029ac:	9309      	str	r3, [sp, #36]	; 0x24
600029ae:	9b02      	ldr	r3, [sp, #8]
600029b0:	2600      	movs	r6, #0
600029b2:	3307      	adds	r3, #7
600029b4:	f88d 6044 	strb.w	r6, [sp, #68]	; 0x44
600029b8:	f023 0307 	bic.w	r3, r3, #7
600029bc:	ecb3 ab02 	vldmia	r3!, {d10}
600029c0:	eeb5 ab40 	vcmp.f64	d10, #0.0
600029c4:	9302      	str	r3, [sp, #8]
600029c6:	eef1 fa10 	vmrs	APSR_nzcv, fpscr
600029ca:	f040 8146 	bne.w	60002c5a <DbgConsole_Printf+0x3be>
600029ce:	2101      	movs	r1, #1
600029d0:	2330      	movs	r3, #48	; 0x30
600029d2:	ae11      	add	r6, sp, #68	; 0x44
600029d4:	4688      	mov	r8, r1
600029d6:	f88d 3045 	strb.w	r3, [sp, #69]	; 0x45
600029da:	eeb5 abc0 	vcmpe.f64	d10, #0.0
600029de:	1873      	adds	r3, r6, r1
600029e0:	9306      	str	r3, [sp, #24]
600029e2:	eef1 fa10 	vmrs	APSR_nzcv, fpscr
600029e6:	f100 82ba 	bmi.w	60002f5e <DbgConsole_Printf+0x6c2>
600029ea:	07ae      	lsls	r6, r5, #30
600029ec:	f140 83af 	bpl.w	6000314e <DbgConsole_Printf+0x8b2>
600029f0:	9b09      	ldr	r3, [sp, #36]	; 0x24
600029f2:	f108 0801 	add.w	r8, r8, #1
600029f6:	2b00      	cmp	r3, #0
600029f8:	f040 8409 	bne.w	6000320e <DbgConsole_Printf+0x972>
600029fc:	9b05      	ldr	r3, [sp, #20]
600029fe:	2b00      	cmp	r3, #0
60002a00:	f000 84e8 	beq.w	600033d4 <DbgConsole_Printf+0xb38>
60002a04:	232b      	movs	r3, #43	; 0x2b
60002a06:	e2b5      	b.n	60002f74 <DbgConsole_Printf+0x6d8>
60002a08:	9b02      	ldr	r3, [sp, #8]
60002a0a:	f853 7b04 	ldr.w	r7, [r3], #4
60002a0e:	9302      	str	r3, [sp, #8]
60002a10:	e794      	b.n	6000293c <DbgConsole_Printf+0xa0>
60002a12:	f04f 33ff 	mov.w	r3, #4294967295	; 0xffffffff
60002a16:	9301      	str	r3, [sp, #4]
60002a18:	9801      	ldr	r0, [sp, #4]
60002a1a:	b01b      	add	sp, #108	; 0x6c
60002a1c:	ecbd 8b0a 	vpop	{d8-d12}
60002a20:	e8bd 4ff0 	ldmia.w	sp!, {r4, r5, r6, r7, r8, r9, sl, fp, lr}
60002a24:	b004      	add	sp, #16
60002a26:	4770      	bx	lr
60002a28:	05ea      	lsls	r2, r5, #23
60002a2a:	f100 810c 	bmi.w	60002c46 <DbgConsole_Printf+0x3aa>
60002a2e:	9b02      	ldr	r3, [sp, #8]
60002a30:	f853 1b04 	ldr.w	r1, [r3], #4
60002a34:	930b      	str	r3, [sp, #44]	; 0x2c
60002a36:	17cb      	asrs	r3, r1, #31
60002a38:	9302      	str	r3, [sp, #8]
60002a3a:	9b02      	ldr	r3, [sp, #8]
60002a3c:	f04f 0900 	mov.w	r9, #0
60002a40:	430b      	orrs	r3, r1
60002a42:	f88d 9044 	strb.w	r9, [sp, #68]	; 0x44
60002a46:	f000 80c7 	beq.w	60002bd8 <DbgConsole_Printf+0x33c>
60002a4a:	9802      	ldr	r0, [sp, #8]
60002a4c:	46c8      	mov	r8, r9
60002a4e:	f10d 0945 	add.w	r9, sp, #69	; 0x45
60002a52:	4603      	mov	r3, r0
60002a54:	4608      	mov	r0, r1
60002a56:	4619      	mov	r1, r3
60002a58:	e008      	b.n	60002a6c <DbgConsole_Printf+0x1d0>
60002a5a:	3230      	adds	r2, #48	; 0x30
60002a5c:	f108 0301 	add.w	r3, r8, #1
60002a60:	f809 2b01 	strb.w	r2, [r9], #1
60002a64:	ea57 0206 	orrs.w	r2, r7, r6
60002a68:	d01d      	beq.n	60002aa6 <DbgConsole_Printf+0x20a>
60002a6a:	4698      	mov	r8, r3
60002a6c:	4606      	mov	r6, r0
60002a6e:	460f      	mov	r7, r1
60002a70:	220a      	movs	r2, #10
60002a72:	2300      	movs	r3, #0
60002a74:	f003 ff4f 	bl	60006916 <__aeabi_ldivmod>
60002a78:	4686      	mov	lr, r0
60002a7a:	468c      	mov	ip, r1
60002a7c:	4630      	mov	r0, r6
60002a7e:	4639      	mov	r1, r7
60002a80:	220a      	movs	r2, #10
60002a82:	2300      	movs	r3, #0
60002a84:	4676      	mov	r6, lr
60002a86:	4667      	mov	r7, ip
60002a88:	f003 ff45 	bl	60006916 <__aeabi_ldivmod>
60002a8c:	2b00      	cmp	r3, #0
60002a8e:	4630      	mov	r0, r6
60002a90:	4639      	mov	r1, r7
60002a92:	dae2      	bge.n	60002a5a <DbgConsole_Printf+0x1be>
60002a94:	f1d2 0230 	rsbs	r2, r2, #48	; 0x30
60002a98:	f108 0301 	add.w	r3, r8, #1
60002a9c:	f809 2b01 	strb.w	r2, [r9], #1
60002aa0:	ea57 0206 	orrs.w	r2, r7, r6
60002aa4:	d1e1      	bne.n	60002a6a <DbgConsole_Printf+0x1ce>
60002aa6:	ae11      	add	r6, sp, #68	; 0x44
60002aa8:	4642      	mov	r2, r8
60002aaa:	4698      	mov	r8, r3
60002aac:	18f3      	adds	r3, r6, r3
60002aae:	9306      	str	r3, [sp, #24]
60002ab0:	9b02      	ldr	r3, [sp, #8]
60002ab2:	2b00      	cmp	r3, #0
60002ab4:	f280 8098 	bge.w	60002be8 <DbgConsole_Printf+0x34c>
60002ab8:	f015 0308 	ands.w	r3, r5, #8
60002abc:	f102 0802 	add.w	r8, r2, #2
60002ac0:	9309      	str	r3, [sp, #36]	; 0x24
60002ac2:	f040 843c 	bne.w	6000333e <DbgConsole_Printf+0xaa2>
60002ac6:	f04f 092d 	mov.w	r9, #45	; 0x2d
60002aca:	f015 0301 	ands.w	r3, r5, #1
60002ace:	9305      	str	r3, [sp, #20]
60002ad0:	f000 809b 	beq.w	60002c0a <DbgConsole_Printf+0x36e>
60002ad4:	f89b 3010 	ldrb.w	r3, [fp, #16]
60002ad8:	f8cd 9038 	str.w	r9, [sp, #56]	; 0x38
60002adc:	b12b      	cbz	r3, 60002aea <DbgConsole_Printf+0x24e>
60002ade:	f8db 3008 	ldr.w	r3, [fp, #8]
60002ae2:	2201      	movs	r2, #1
60002ae4:	a90e      	add	r1, sp, #56	; 0x38
60002ae6:	4658      	mov	r0, fp
60002ae8:	4798      	blx	r3
60002aea:	9b01      	ldr	r3, [sp, #4]
60002aec:	3301      	adds	r3, #1
60002aee:	9301      	str	r3, [sp, #4]
60002af0:	f004 03df 	and.w	r3, r4, #223	; 0xdf
60002af4:	2b46      	cmp	r3, #70	; 0x46
60002af6:	f000 8159 	beq.w	60002dac <DbgConsole_Printf+0x510>
60002afa:	f1a4 0262 	sub.w	r2, r4, #98	; 0x62
60002afe:	2b58      	cmp	r3, #88	; 0x58
60002b00:	9208      	str	r2, [sp, #32]
60002b02:	b2d2      	uxtb	r2, r2
60002b04:	9207      	str	r2, [sp, #28]
60002b06:	f040 83e3 	bne.w	600032d0 <DbgConsole_Printf+0xa34>
60002b0a:	f1b4 0378 	subs.w	r3, r4, #120	; 0x78
60002b0e:	bf18      	it	ne
60002b10:	2301      	movne	r3, #1
60002b12:	f415 7080 	ands.w	r0, r5, #256	; 0x100
60002b16:	9304      	str	r3, [sp, #16]
60002b18:	9b0b      	ldr	r3, [sp, #44]	; 0x2c
60002b1a:	f000 8295 	beq.w	60003048 <DbgConsole_Printf+0x7ac>
60002b1e:	3307      	adds	r3, #7
60002b20:	f023 0307 	bic.w	r3, r3, #7
60002b24:	461a      	mov	r2, r3
60002b26:	6858      	ldr	r0, [r3, #4]
60002b28:	f852 3b08 	ldr.w	r3, [r2], #8
60002b2c:	9202      	str	r2, [sp, #8]
60002b2e:	2200      	movs	r2, #0
60002b30:	f88d 2044 	strb.w	r2, [sp, #68]	; 0x44
60002b34:	ea53 0200 	orrs.w	r2, r3, r0
60002b38:	f000 8291 	beq.w	6000305e <DbgConsole_Printf+0x7c2>
60002b3c:	2c78      	cmp	r4, #120	; 0x78
60002b3e:	f10d 0745 	add.w	r7, sp, #69	; 0x45
60002b42:	ae11      	add	r6, sp, #68	; 0x44
60002b44:	f04f 0800 	mov.w	r8, #0
60002b48:	bf14      	ite	ne
60002b4a:	f04f 0e41 	movne.w	lr, #65	; 0x41
60002b4e:	f04f 0e61 	moveq.w	lr, #97	; 0x61
60002b52:	4699      	mov	r9, r3
60002b54:	f1ae 0e0a 	sub.w	lr, lr, #10
60002b58:	e00b      	b.n	60002b72 <DbgConsole_Printf+0x2d6>
60002b5a:	f112 0130 	adds.w	r1, r2, #48	; 0x30
60002b5e:	f807 1b01 	strb.w	r1, [r7], #1
60002b62:	ea5c 0303 	orrs.w	r3, ip, r3
60002b66:	eba7 0106 	sub.w	r1, r7, r6
60002b6a:	f101 31ff 	add.w	r1, r1, #4294967295	; 0xffffffff
60002b6e:	f000 813d 	beq.w	60002dec <DbgConsole_Printf+0x550>
60002b72:	f009 020f 	and.w	r2, r9, #15
60002b76:	ea4f 1c19 	mov.w	ip, r9, lsr #4
60002b7a:	0903      	lsrs	r3, r0, #4
60002b7c:	2a0a      	cmp	r2, #10
60002b7e:	ea4c 7c00 	orr.w	ip, ip, r0, lsl #28
60002b82:	4618      	mov	r0, r3
60002b84:	f178 0100 	sbcs.w	r1, r8, #0
60002b88:	46e1      	mov	r9, ip
60002b8a:	d3e6      	bcc.n	60002b5a <DbgConsole_Printf+0x2be>
60002b8c:	eb1e 0102 	adds.w	r1, lr, r2
60002b90:	e7e5      	b.n	60002b5e <DbgConsole_Printf+0x2c2>
60002b92:	4631      	mov	r1, r6
60002b94:	2600      	movs	r6, #0
60002b96:	4630      	mov	r0, r6
60002b98:	784c      	ldrb	r4, [r1, #1]
60002b9a:	eb00 0380 	add.w	r3, r0, r0, lsl #2
60002b9e:	1c4a      	adds	r2, r1, #1
60002ba0:	f1a4 0730 	sub.w	r7, r4, #48	; 0x30
60002ba4:	eb04 0343 	add.w	r3, r4, r3, lsl #1
60002ba8:	2f09      	cmp	r7, #9
60002baa:	d804      	bhi.n	60002bb6 <DbgConsole_Printf+0x31a>
60002bac:	f1a3 0030 	sub.w	r0, r3, #48	; 0x30
60002bb0:	4611      	mov	r1, r2
60002bb2:	2601      	movs	r6, #1
60002bb4:	e7f0      	b.n	60002b98 <DbgConsole_Printf+0x2fc>
60002bb6:	2c2a      	cmp	r4, #42	; 0x2a
60002bb8:	f000 82a8 	beq.w	6000310c <DbgConsole_Printf+0x870>
60002bbc:	2c68      	cmp	r4, #104	; 0x68
60002bbe:	e9cd 1003 	strd	r1, r0, [sp, #12]
60002bc2:	f47f aedb 	bne.w	6000297c <DbgConsole_Printf+0xe0>
60002bc6:	9b03      	ldr	r3, [sp, #12]
60002bc8:	789c      	ldrb	r4, [r3, #2]
60002bca:	2c68      	cmp	r4, #104	; 0x68
60002bcc:	f000 8107 	beq.w	60002dde <DbgConsole_Printf+0x542>
60002bd0:	f045 0540 	orr.w	r5, r5, #64	; 0x40
60002bd4:	9203      	str	r2, [sp, #12]
60002bd6:	e6db      	b.n	60002990 <DbgConsole_Printf+0xf4>
60002bd8:	2330      	movs	r3, #48	; 0x30
60002bda:	f04f 0801 	mov.w	r8, #1
60002bde:	f88d 3045 	strb.w	r3, [sp, #69]	; 0x45
60002be2:	f10d 0345 	add.w	r3, sp, #69	; 0x45
60002be6:	9306      	str	r3, [sp, #24]
60002be8:	07ab      	lsls	r3, r5, #30
60002bea:	f140 80a0 	bpl.w	60002d2e <DbgConsole_Printf+0x492>
60002bee:	f015 0308 	ands.w	r3, r5, #8
60002bf2:	f108 0801 	add.w	r8, r8, #1
60002bf6:	9309      	str	r3, [sp, #36]	; 0x24
60002bf8:	f040 83d0 	bne.w	6000339c <DbgConsole_Printf+0xb00>
60002bfc:	f015 0301 	ands.w	r3, r5, #1
60002c00:	f04f 092b 	mov.w	r9, #43	; 0x2b
60002c04:	9305      	str	r3, [sp, #20]
60002c06:	f47f af65 	bne.w	60002ad4 <DbgConsole_Printf+0x238>
60002c0a:	45c2      	cmp	sl, r8
60002c0c:	f300 80a1 	bgt.w	60002d52 <DbgConsole_Printf+0x4b6>
60002c10:	e0b7      	b.n	60002d82 <DbgConsole_Printf+0x4e6>
60002c12:	2b58      	cmp	r3, #88	; 0x58
60002c14:	f040 80cd 	bne.w	60002db2 <DbgConsole_Printf+0x516>
60002c18:	9b02      	ldr	r3, [sp, #8]
60002c1a:	f005 0201 	and.w	r2, r5, #1
60002c1e:	930b      	str	r3, [sp, #44]	; 0x2c
60002c20:	f1a4 0362 	sub.w	r3, r4, #98	; 0x62
60002c24:	9205      	str	r2, [sp, #20]
60002c26:	f005 0208 	and.w	r2, r5, #8
60002c2a:	9308      	str	r3, [sp, #32]
60002c2c:	b2db      	uxtb	r3, r3
60002c2e:	9209      	str	r2, [sp, #36]	; 0x24
60002c30:	9307      	str	r3, [sp, #28]
60002c32:	e76a      	b.n	60002b0a <DbgConsole_Printf+0x26e>
60002c34:	9b03      	ldr	r3, [sp, #12]
60002c36:	f445 7580 	orr.w	r5, r5, #256	; 0x100
60002c3a:	78dc      	ldrb	r4, [r3, #3]
60002c3c:	3302      	adds	r3, #2
60002c3e:	2c64      	cmp	r4, #100	; 0x64
60002c40:	9303      	str	r3, [sp, #12]
60002c42:	f040 82aa 	bne.w	6000319a <DbgConsole_Printf+0x8fe>
60002c46:	9b02      	ldr	r3, [sp, #8]
60002c48:	3307      	adds	r3, #7
60002c4a:	f023 0307 	bic.w	r3, r3, #7
60002c4e:	685a      	ldr	r2, [r3, #4]
60002c50:	f853 1b08 	ldr.w	r1, [r3], #8
60002c54:	9202      	str	r2, [sp, #8]
60002c56:	930b      	str	r3, [sp, #44]	; 0x2c
60002c58:	e6ef      	b.n	60002a3a <DbgConsole_Printf+0x19e>
60002c5a:	eeb0 0b4a 	vmov.f64	d0, d10
60002c5e:	a80e      	add	r0, sp, #56	; 0x38
60002c60:	f7ff fbd2 	bl	60002408 <modf>
60002c64:	9a04      	ldr	r2, [sp, #16]
60002c66:	eeb0 9b40 	vmov.f64	d9, d0
60002c6a:	b13a      	cbz	r2, 60002c7c <DbgConsole_Printf+0x3e0>
60002c6c:	eeb2 7b04 	vmov.f64	d7, #36	; 0x41200000  10.0
60002c70:	4633      	mov	r3, r6
60002c72:	3301      	adds	r3, #1
60002c74:	ee29 9b07 	vmul.f64	d9, d9, d7
60002c78:	429a      	cmp	r2, r3
60002c7a:	d1fa      	bne.n	60002c72 <DbgConsole_Printf+0x3d6>
60002c7c:	eeb5 abc0 	vcmpe.f64	d10, #0.0
60002c80:	eddd 6a04 	vldr	s13, [sp, #16]
60002c84:	eeb6 7b00 	vmov.f64	d7, #96	; 0x3f000000  0.5
60002c88:	eeb8 1b66 	vcvt.f64.u32	d1, s13
60002c8c:	eef1 fa10 	vmrs	APSR_nzcv, fpscr
60002c90:	eeb2 0b04 	vmov.f64	d0, #36	; 0x41200000  10.0
60002c94:	f2c0 833e 	blt.w	60003314 <DbgConsole_Printf+0xa78>
60002c98:	ee39 9b07 	vadd.f64	d9, d9, d7
60002c9c:	f7ff fbf4 	bl	60002488 <pow>
60002ca0:	eeb4 9bc0 	vcmpe.f64	d9, d0
60002ca4:	eef1 fa10 	vmrs	APSR_nzcv, fpscr
60002ca8:	f280 829a 	bge.w	600031e0 <DbgConsole_Printf+0x944>
60002cac:	ed9d bb0e 	vldr	d11, [sp, #56]	; 0x38
60002cb0:	9b04      	ldr	r3, [sp, #16]
60002cb2:	2b00      	cmp	r3, #0
60002cb4:	f000 839a 	beq.w	600033ec <DbgConsole_Printf+0xb50>
60002cb8:	9b04      	ldr	r3, [sp, #16]
60002cba:	ae11      	add	r6, sp, #68	; 0x44
60002cbc:	eeb2 cb04 	vmov.f64	d12, #36	; 0x41200000  10.0
60002cc0:	f10d 0945 	add.w	r9, sp, #69	; 0x45
60002cc4:	f103 0801 	add.w	r8, r3, #1
60002cc8:	eb06 0708 	add.w	r7, r6, r8
60002ccc:	eeb0 8b49 	vmov.f64	d8, d9
60002cd0:	ee89 9b0c 	vdiv.f64	d9, d9, d12
60002cd4:	ec51 0b19 	vmov	r0, r1, d9
60002cd8:	f003 feeb 	bl	60006ab2 <__aeabi_d2lz>
60002cdc:	f003 ff64 	bl	60006ba8 <__aeabi_l2d>
60002ce0:	ec41 0b17 	vmov	d7, r0, r1
60002ce4:	eea7 8b4c 	vfms.f64	d8, d7, d12
60002ce8:	eefd 7bc8 	vcvt.s32.f64	s15, d8
60002cec:	ee17 3a90 	vmov	r3, s15
60002cf0:	2b00      	cmp	r3, #0
60002cf2:	f103 0230 	add.w	r2, r3, #48	; 0x30
60002cf6:	bfb8      	it	lt
60002cf8:	f1c3 0230 	rsblt	r2, r3, #48	; 0x30
60002cfc:	f809 2b01 	strb.w	r2, [r9], #1
60002d00:	45b9      	cmp	r9, r7
60002d02:	d1e3      	bne.n	60002ccc <DbgConsole_Printf+0x430>
60002d04:	f10d 0345 	add.w	r3, sp, #69	; 0x45
60002d08:	9a04      	ldr	r2, [sp, #16]
60002d0a:	46c6      	mov	lr, r8
60002d0c:	1898      	adds	r0, r3, r2
60002d0e:	eefd 7bcb 	vcvt.s32.f64	s15, d11
60002d12:	222e      	movs	r2, #46	; 0x2e
60002d14:	7002      	strb	r2, [r0, #0]
60002d16:	ee17 3a90 	vmov	r3, s15
60002d1a:	2b00      	cmp	r3, #0
60002d1c:	f040 82dd 	bne.w	600032da <DbgConsole_Printf+0xa3e>
60002d20:	9b04      	ldr	r3, [sp, #16]
60002d22:	f103 0802 	add.w	r8, r3, #2
60002d26:	2330      	movs	r3, #48	; 0x30
60002d28:	4641      	mov	r1, r8
60002d2a:	7043      	strb	r3, [r0, #1]
60002d2c:	e655      	b.n	600029da <DbgConsole_Printf+0x13e>
60002d2e:	076f      	lsls	r7, r5, #29
60002d30:	f100 8237 	bmi.w	600031a2 <DbgConsole_Printf+0x906>
60002d34:	f015 0308 	ands.w	r3, r5, #8
60002d38:	9309      	str	r3, [sp, #36]	; 0x24
60002d3a:	f040 8335 	bne.w	600033a8 <DbgConsole_Printf+0xb0c>
60002d3e:	f015 0301 	ands.w	r3, r5, #1
60002d42:	9305      	str	r3, [sp, #20]
60002d44:	f47f aed4 	bne.w	60002af0 <DbgConsole_Printf+0x254>
60002d48:	45c2      	cmp	sl, r8
60002d4a:	f77f aed1 	ble.w	60002af0 <DbgConsole_Printf+0x254>
60002d4e:	f8dd 9024 	ldr.w	r9, [sp, #36]	; 0x24
60002d52:	4646      	mov	r6, r8
60002d54:	2720      	movs	r7, #32
60002d56:	f89b 3010 	ldrb.w	r3, [fp, #16]
60002d5a:	3601      	adds	r6, #1
60002d5c:	2201      	movs	r2, #1
60002d5e:	a90e      	add	r1, sp, #56	; 0x38
60002d60:	4658      	mov	r0, fp
60002d62:	970e      	str	r7, [sp, #56]	; 0x38
60002d64:	b113      	cbz	r3, 60002d6c <DbgConsole_Printf+0x4d0>
60002d66:	f8db 3008 	ldr.w	r3, [fp, #8]
60002d6a:	4798      	blx	r3
60002d6c:	4556      	cmp	r6, sl
60002d6e:	d1f2      	bne.n	60002d56 <DbgConsole_Printf+0x4ba>
60002d70:	9b01      	ldr	r3, [sp, #4]
60002d72:	4453      	add	r3, sl
60002d74:	eba3 0308 	sub.w	r3, r3, r8
60002d78:	9301      	str	r3, [sp, #4]
60002d7a:	f1b9 0f00 	cmp.w	r9, #0
60002d7e:	f000 8307 	beq.w	60003390 <DbgConsole_Printf+0xaf4>
60002d82:	f89b 3010 	ldrb.w	r3, [fp, #16]
60002d86:	f8cd 9038 	str.w	r9, [sp, #56]	; 0x38
60002d8a:	b12b      	cbz	r3, 60002d98 <DbgConsole_Printf+0x4fc>
60002d8c:	f8db 3008 	ldr.w	r3, [fp, #8]
60002d90:	2201      	movs	r2, #1
60002d92:	a90e      	add	r1, sp, #56	; 0x38
60002d94:	4658      	mov	r0, fp
60002d96:	4798      	blx	r3
60002d98:	9b01      	ldr	r3, [sp, #4]
60002d9a:	3301      	adds	r3, #1
60002d9c:	9301      	str	r3, [sp, #4]
60002d9e:	2300      	movs	r3, #0
60002da0:	9305      	str	r3, [sp, #20]
60002da2:	f004 03df 	and.w	r3, r4, #223	; 0xdf
60002da6:	2b46      	cmp	r3, #70	; 0x46
60002da8:	f47f aea7 	bne.w	60002afa <DbgConsole_Printf+0x25e>
60002dac:	9b0b      	ldr	r3, [sp, #44]	; 0x2c
60002dae:	9302      	str	r3, [sp, #8]
60002db0:	e5fd      	b.n	600029ae <DbgConsole_Printf+0x112>
60002db2:	f1a4 0362 	sub.w	r3, r4, #98	; 0x62
60002db6:	b2da      	uxtb	r2, r3
60002db8:	9308      	str	r3, [sp, #32]
60002dba:	2a13      	cmp	r2, #19
60002dbc:	9207      	str	r2, [sp, #28]
60002dbe:	f240 8201 	bls.w	600031c4 <DbgConsole_Printf+0x928>
60002dc2:	f89b 3010 	ldrb.w	r3, [fp, #16]
60002dc6:	940e      	str	r4, [sp, #56]	; 0x38
60002dc8:	b12b      	cbz	r3, 60002dd6 <DbgConsole_Printf+0x53a>
60002dca:	f8db 3008 	ldr.w	r3, [fp, #8]
60002dce:	2201      	movs	r2, #1
60002dd0:	a90e      	add	r1, sp, #56	; 0x38
60002dd2:	4658      	mov	r0, fp
60002dd4:	4798      	blx	r3
60002dd6:	9b01      	ldr	r3, [sp, #4]
60002dd8:	3301      	adds	r3, #1
60002dda:	9301      	str	r3, [sp, #4]
60002ddc:	e0e8      	b.n	60002fb0 <DbgConsole_Printf+0x714>
60002dde:	9b03      	ldr	r3, [sp, #12]
60002de0:	f045 0520 	orr.w	r5, r5, #32
60002de4:	78dc      	ldrb	r4, [r3, #3]
60002de6:	3302      	adds	r3, #2
60002de8:	9303      	str	r3, [sp, #12]
60002dea:	e5d1      	b.n	60002990 <DbgConsole_Printf+0xf4>
60002dec:	1873      	adds	r3, r6, r1
60002dee:	4689      	mov	r9, r1
60002df0:	9306      	str	r3, [sp, #24]
60002df2:	9b09      	ldr	r3, [sp, #36]	; 0x24
60002df4:	2b00      	cmp	r3, #0
60002df6:	f040 813e 	bne.w	60003076 <DbgConsole_Printf+0x7da>
60002dfa:	06e9      	lsls	r1, r5, #27
60002dfc:	f140 81b5 	bpl.w	6000316a <DbgConsole_Printf+0x8ce>
60002e00:	2330      	movs	r3, #48	; 0x30
60002e02:	930e      	str	r3, [sp, #56]	; 0x38
60002e04:	f89b 3010 	ldrb.w	r3, [fp, #16]
60002e08:	b19b      	cbz	r3, 60002e32 <DbgConsole_Printf+0x596>
60002e0a:	2201      	movs	r2, #1
60002e0c:	f8db 3008 	ldr.w	r3, [fp, #8]
60002e10:	a90e      	add	r1, sp, #56	; 0x38
60002e12:	4658      	mov	r0, fp
60002e14:	4798      	blx	r3
60002e16:	2c78      	cmp	r4, #120	; 0x78
60002e18:	f89b 3010 	ldrb.w	r3, [fp, #16]
60002e1c:	bf0c      	ite	eq
60002e1e:	2278      	moveq	r2, #120	; 0x78
60002e20:	2258      	movne	r2, #88	; 0x58
60002e22:	920e      	str	r2, [sp, #56]	; 0x38
60002e24:	b12b      	cbz	r3, 60002e32 <DbgConsole_Printf+0x596>
60002e26:	f8db 3008 	ldr.w	r3, [fp, #8]
60002e2a:	2201      	movs	r2, #1
60002e2c:	a90e      	add	r1, sp, #56	; 0x38
60002e2e:	4658      	mov	r0, fp
60002e30:	4798      	blx	r3
60002e32:	9b01      	ldr	r3, [sp, #4]
60002e34:	f109 0802 	add.w	r8, r9, #2
60002e38:	3302      	adds	r3, #2
60002e3a:	9301      	str	r3, [sp, #4]
60002e3c:	9b07      	ldr	r3, [sp, #28]
60002e3e:	2b13      	cmp	r3, #19
60002e40:	f200 837e 	bhi.w	60003540 <DbgConsole_Printf+0xca4>
60002e44:	9a07      	ldr	r2, [sp, #28]
60002e46:	4b7e      	ldr	r3, [pc, #504]	; (60003040 <DbgConsole_Printf+0x7a4>)
60002e48:	40d3      	lsrs	r3, r2
60002e4a:	07da      	lsls	r2, r3, #31
60002e4c:	f140 80aa 	bpl.w	60002fa4 <DbgConsole_Printf+0x708>
60002e50:	f415 7480 	ands.w	r4, r5, #256	; 0x100
60002e54:	9b02      	ldr	r3, [sp, #8]
60002e56:	f000 80ed 	beq.w	60003034 <DbgConsole_Printf+0x798>
60002e5a:	3307      	adds	r3, #7
60002e5c:	f023 0307 	bic.w	r3, r3, #7
60002e60:	685c      	ldr	r4, [r3, #4]
60002e62:	f853 7b08 	ldr.w	r7, [r3], #8
60002e66:	9302      	str	r3, [sp, #8]
60002e68:	9b08      	ldr	r3, [sp, #32]
60002e6a:	2b13      	cmp	r3, #19
60002e6c:	d817      	bhi.n	60002e9e <DbgConsole_Printf+0x602>
60002e6e:	e8df f013 	tbh	[pc, r3, lsl #1]
60002e72:	0073      	.short	0x0073
60002e74:	00160016 	.word	0x00160016
60002e78:	00160016 	.word	0x00160016
60002e7c:	00160016 	.word	0x00160016
60002e80:	00160016 	.word	0x00160016
60002e84:	00160016 	.word	0x00160016
60002e88:	00160016 	.word	0x00160016
60002e8c:	004501b4 	.word	0x004501b4
60002e90:	00160016 	.word	0x00160016
60002e94:	00160016 	.word	0x00160016
60002e98:	0014      	.short	0x0014
60002e9a:	230a      	movs	r3, #10
60002e9c:	930a      	str	r3, [sp, #40]	; 0x28
60002e9e:	2300      	movs	r3, #0
60002ea0:	f88d 3044 	strb.w	r3, [sp, #68]	; 0x44
60002ea4:	ea57 0304 	orrs.w	r3, r7, r4
60002ea8:	d030      	beq.n	60002f0c <DbgConsole_Printf+0x670>
60002eaa:	9b04      	ldr	r3, [sp, #16]
60002eac:	2b00      	cmp	r3, #0
60002eae:	f000 80c5 	beq.w	6000303c <DbgConsole_Printf+0x7a0>
60002eb2:	2341      	movs	r3, #65	; 0x41
60002eb4:	3b0a      	subs	r3, #10
60002eb6:	9504      	str	r5, [sp, #16]
60002eb8:	f10d 0945 	add.w	r9, sp, #69	; 0x45
60002ebc:	ae11      	add	r6, sp, #68	; 0x44
60002ebe:	f8dd 8028 	ldr.w	r8, [sp, #40]	; 0x28
60002ec2:	461d      	mov	r5, r3
60002ec4:	e00a      	b.n	60002edc <DbgConsole_Printf+0x640>
60002ec6:	3230      	adds	r2, #48	; 0x30
60002ec8:	45c6      	cmp	lr, r8
60002eca:	f809 2b01 	strb.w	r2, [r9], #1
60002ece:	eba9 0306 	sub.w	r3, r9, r6
60002ed2:	f17c 0100 	sbcs.w	r1, ip, #0
60002ed6:	f103 33ff 	add.w	r3, r3, #4294967295	; 0xffffffff
60002eda:	d36c      	bcc.n	60002fb6 <DbgConsole_Printf+0x71a>
60002edc:	4638      	mov	r0, r7
60002ede:	4621      	mov	r1, r4
60002ee0:	4642      	mov	r2, r8
60002ee2:	2300      	movs	r3, #0
60002ee4:	f003 fd2a 	bl	6000693c <__aeabi_uldivmod>
60002ee8:	2a0a      	cmp	r2, #10
60002eea:	46be      	mov	lr, r7
60002eec:	46a4      	mov	ip, r4
60002eee:	f173 0300 	sbcs.w	r3, r3, #0
60002ef2:	4607      	mov	r7, r0
60002ef4:	460c      	mov	r4, r1
60002ef6:	d3e6      	bcc.n	60002ec6 <DbgConsole_Printf+0x62a>
60002ef8:	18aa      	adds	r2, r5, r2
60002efa:	e7e5      	b.n	60002ec8 <DbgConsole_Printf+0x62c>
60002efc:	2310      	movs	r3, #16
60002efe:	930a      	str	r3, [sp, #40]	; 0x28
60002f00:	2300      	movs	r3, #0
60002f02:	f88d 3044 	strb.w	r3, [sp, #68]	; 0x44
60002f06:	ea57 0304 	orrs.w	r3, r7, r4
60002f0a:	d1ce      	bne.n	60002eaa <DbgConsole_Printf+0x60e>
60002f0c:	2330      	movs	r3, #48	; 0x30
60002f0e:	ae11      	add	r6, sp, #68	; 0x44
60002f10:	f88d 3045 	strb.w	r3, [sp, #69]	; 0x45
60002f14:	2301      	movs	r3, #1
60002f16:	4698      	mov	r8, r3
60002f18:	441e      	add	r6, r3
60002f1a:	072b      	lsls	r3, r5, #28
60002f1c:	d550      	bpl.n	60002fc0 <DbgConsole_Printf+0x724>
60002f1e:	45c2      	cmp	sl, r8
60002f20:	f340 8240 	ble.w	600033a4 <DbgConsole_Printf+0xb08>
60002f24:	4645      	mov	r5, r8
60002f26:	2430      	movs	r4, #48	; 0x30
60002f28:	f89b 3010 	ldrb.w	r3, [fp, #16]
60002f2c:	3501      	adds	r5, #1
60002f2e:	2201      	movs	r2, #1
60002f30:	a90e      	add	r1, sp, #56	; 0x38
60002f32:	4658      	mov	r0, fp
60002f34:	940e      	str	r4, [sp, #56]	; 0x38
60002f36:	b113      	cbz	r3, 60002f3e <DbgConsole_Printf+0x6a2>
60002f38:	f8db 3008 	ldr.w	r3, [fp, #8]
60002f3c:	4798      	blx	r3
60002f3e:	45aa      	cmp	sl, r5
60002f40:	d1f2      	bne.n	60002f28 <DbgConsole_Printf+0x68c>
60002f42:	9b01      	ldr	r3, [sp, #4]
60002f44:	4453      	add	r3, sl
60002f46:	eba3 0308 	sub.w	r3, r3, r8
60002f4a:	9301      	str	r3, [sp, #4]
60002f4c:	7833      	ldrb	r3, [r6, #0]
60002f4e:	46a8      	mov	r8, r5
60002f50:	2b00      	cmp	r3, #0
60002f52:	d13d      	bne.n	60002fd0 <DbgConsole_Printf+0x734>
60002f54:	9606      	str	r6, [sp, #24]
60002f56:	e029      	b.n	60002fac <DbgConsole_Printf+0x710>
60002f58:	2302      	movs	r3, #2
60002f5a:	930a      	str	r3, [sp, #40]	; 0x28
60002f5c:	e79f      	b.n	60002e9e <DbgConsole_Printf+0x602>
60002f5e:	9b09      	ldr	r3, [sp, #36]	; 0x24
60002f60:	f108 0801 	add.w	r8, r8, #1
60002f64:	2b00      	cmp	r3, #0
60002f66:	f040 821b 	bne.w	600033a0 <DbgConsole_Printf+0xb04>
60002f6a:	9b05      	ldr	r3, [sp, #20]
60002f6c:	2b00      	cmp	r3, #0
60002f6e:	f000 8179 	beq.w	60003264 <DbgConsole_Printf+0x9c8>
60002f72:	232d      	movs	r3, #45	; 0x2d
60002f74:	930e      	str	r3, [sp, #56]	; 0x38
60002f76:	f89b 3010 	ldrb.w	r3, [fp, #16]
60002f7a:	b12b      	cbz	r3, 60002f88 <DbgConsole_Printf+0x6ec>
60002f7c:	f8db 3008 	ldr.w	r3, [fp, #8]
60002f80:	2201      	movs	r2, #1
60002f82:	a90e      	add	r1, sp, #56	; 0x38
60002f84:	4658      	mov	r0, fp
60002f86:	4798      	blx	r3
60002f88:	9a01      	ldr	r2, [sp, #4]
60002f8a:	f1a4 0362 	sub.w	r3, r4, #98	; 0x62
60002f8e:	3201      	adds	r2, #1
60002f90:	9308      	str	r3, [sp, #32]
60002f92:	b2db      	uxtb	r3, r3
60002f94:	9201      	str	r2, [sp, #4]
60002f96:	2201      	movs	r2, #1
60002f98:	9307      	str	r3, [sp, #28]
60002f9a:	9205      	str	r2, [sp, #20]
60002f9c:	9b07      	ldr	r3, [sp, #28]
60002f9e:	2b13      	cmp	r3, #19
60002fa0:	f240 82cb 	bls.w	6000353a <DbgConsole_Printf+0xc9e>
60002fa4:	9b06      	ldr	r3, [sp, #24]
60002fa6:	2b00      	cmp	r3, #0
60002fa8:	f040 82ca 	bne.w	60003540 <DbgConsole_Printf+0xca4>
60002fac:	9b05      	ldr	r3, [sp, #20]
60002fae:	bb53      	cbnz	r3, 60003006 <DbgConsole_Printf+0x76a>
60002fb0:	9e03      	ldr	r6, [sp, #12]
60002fb2:	3602      	adds	r6, #2
60002fb4:	e49b      	b.n	600028ee <DbgConsole_Printf+0x52>
60002fb6:	9d04      	ldr	r5, [sp, #16]
60002fb8:	4698      	mov	r8, r3
60002fba:	441e      	add	r6, r3
60002fbc:	072b      	lsls	r3, r5, #28
60002fbe:	d4ae      	bmi.n	60002f1e <DbgConsole_Printf+0x682>
60002fc0:	9b05      	ldr	r3, [sp, #20]
60002fc2:	2b00      	cmp	r3, #0
60002fc4:	f000 80a7 	beq.w	60003116 <DbgConsole_Printf+0x87a>
60002fc8:	7833      	ldrb	r3, [r6, #0]
60002fca:	2b00      	cmp	r3, #0
60002fcc:	f000 81e4 	beq.w	60003398 <DbgConsole_Printf+0xafc>
60002fd0:	9a01      	ldr	r2, [sp, #4]
60002fd2:	4432      	add	r2, r6
60002fd4:	3e01      	subs	r6, #1
60002fd6:	4614      	mov	r4, r2
60002fd8:	f89b c010 	ldrb.w	ip, [fp, #16]
60002fdc:	1ba7      	subs	r7, r4, r6
60002fde:	2201      	movs	r2, #1
60002fe0:	a90e      	add	r1, sp, #56	; 0x38
60002fe2:	4658      	mov	r0, fp
60002fe4:	4635      	mov	r5, r6
60002fe6:	930e      	str	r3, [sp, #56]	; 0x38
60002fe8:	f1bc 0f00 	cmp.w	ip, #0
60002fec:	d002      	beq.n	60002ff4 <DbgConsole_Printf+0x758>
60002fee:	f8db 3008 	ldr.w	r3, [fp, #8]
60002ff2:	4798      	blx	r3
60002ff4:	f816 3901 	ldrb.w	r3, [r6], #-1
60002ff8:	2b00      	cmp	r3, #0
60002ffa:	d1ed      	bne.n	60002fd8 <DbgConsole_Printf+0x73c>
60002ffc:	9b05      	ldr	r3, [sp, #20]
60002ffe:	9506      	str	r5, [sp, #24]
60003000:	9701      	str	r7, [sp, #4]
60003002:	2b00      	cmp	r3, #0
60003004:	d0d4      	beq.n	60002fb0 <DbgConsole_Printf+0x714>
60003006:	45c2      	cmp	sl, r8
60003008:	ddd2      	ble.n	60002fb0 <DbgConsole_Printf+0x714>
6000300a:	4645      	mov	r5, r8
6000300c:	2420      	movs	r4, #32
6000300e:	f89b 3010 	ldrb.w	r3, [fp, #16]
60003012:	3501      	adds	r5, #1
60003014:	2201      	movs	r2, #1
60003016:	a90e      	add	r1, sp, #56	; 0x38
60003018:	4658      	mov	r0, fp
6000301a:	940e      	str	r4, [sp, #56]	; 0x38
6000301c:	b113      	cbz	r3, 60003024 <DbgConsole_Printf+0x788>
6000301e:	f8db 3008 	ldr.w	r3, [fp, #8]
60003022:	4798      	blx	r3
60003024:	45aa      	cmp	sl, r5
60003026:	d1f2      	bne.n	6000300e <DbgConsole_Printf+0x772>
60003028:	9b01      	ldr	r3, [sp, #4]
6000302a:	4453      	add	r3, sl
6000302c:	eba3 0308 	sub.w	r3, r3, r8
60003030:	9301      	str	r3, [sp, #4]
60003032:	e7bd      	b.n	60002fb0 <DbgConsole_Printf+0x714>
60003034:	f853 7b04 	ldr.w	r7, [r3], #4
60003038:	9302      	str	r3, [sp, #8]
6000303a:	e715      	b.n	60002e68 <DbgConsole_Printf+0x5cc>
6000303c:	2361      	movs	r3, #97	; 0x61
6000303e:	e739      	b.n	60002eb4 <DbgConsole_Printf+0x618>
60003040:	00086001 	.word	0x00086001
60003044:	8000f180 	.word	0x8000f180
60003048:	461a      	mov	r2, r3
6000304a:	f852 3b04 	ldr.w	r3, [r2], #4
6000304e:	9202      	str	r2, [sp, #8]
60003050:	2200      	movs	r2, #0
60003052:	f88d 2044 	strb.w	r2, [sp, #68]	; 0x44
60003056:	ea53 0200 	orrs.w	r2, r3, r0
6000305a:	f47f ad6f 	bne.w	60002b3c <DbgConsole_Printf+0x2a0>
6000305e:	2330      	movs	r3, #48	; 0x30
60003060:	2101      	movs	r1, #1
60003062:	ae11      	add	r6, sp, #68	; 0x44
60003064:	f88d 3045 	strb.w	r3, [sp, #69]	; 0x45
60003068:	4689      	mov	r9, r1
6000306a:	1873      	adds	r3, r6, r1
6000306c:	9306      	str	r3, [sp, #24]
6000306e:	9b09      	ldr	r3, [sp, #36]	; 0x24
60003070:	2b00      	cmp	r3, #0
60003072:	f43f aec2 	beq.w	60002dfa <DbgConsole_Printf+0x55e>
60003076:	f015 0310 	ands.w	r3, r5, #16
6000307a:	9309      	str	r3, [sp, #36]	; 0x24
6000307c:	f000 809b 	beq.w	600031b6 <DbgConsole_Printf+0x91a>
60003080:	2330      	movs	r3, #48	; 0x30
60003082:	930e      	str	r3, [sp, #56]	; 0x38
60003084:	f89b 3010 	ldrb.w	r3, [fp, #16]
60003088:	b19b      	cbz	r3, 600030b2 <DbgConsole_Printf+0x816>
6000308a:	2201      	movs	r2, #1
6000308c:	f8db 3008 	ldr.w	r3, [fp, #8]
60003090:	a90e      	add	r1, sp, #56	; 0x38
60003092:	4658      	mov	r0, fp
60003094:	4798      	blx	r3
60003096:	2c78      	cmp	r4, #120	; 0x78
60003098:	f89b 3010 	ldrb.w	r3, [fp, #16]
6000309c:	bf0c      	ite	eq
6000309e:	2278      	moveq	r2, #120	; 0x78
600030a0:	2258      	movne	r2, #88	; 0x58
600030a2:	920e      	str	r2, [sp, #56]	; 0x38
600030a4:	b12b      	cbz	r3, 600030b2 <DbgConsole_Printf+0x816>
600030a6:	f8db 3008 	ldr.w	r3, [fp, #8]
600030aa:	2201      	movs	r2, #1
600030ac:	a90e      	add	r1, sp, #56	; 0x38
600030ae:	4658      	mov	r0, fp
600030b0:	4798      	blx	r3
600030b2:	9b01      	ldr	r3, [sp, #4]
600030b4:	45ca      	cmp	sl, r9
600030b6:	46d0      	mov	r8, sl
600030b8:	f103 0302 	add.w	r3, r3, #2
600030bc:	9301      	str	r3, [sp, #4]
600030be:	f77f aebd 	ble.w	60002e3c <DbgConsole_Printf+0x5a0>
600030c2:	2301      	movs	r3, #1
600030c4:	930b      	str	r3, [sp, #44]	; 0x2c
600030c6:	464f      	mov	r7, r9
600030c8:	2630      	movs	r6, #48	; 0x30
600030ca:	f89b 3010 	ldrb.w	r3, [fp, #16]
600030ce:	3701      	adds	r7, #1
600030d0:	2201      	movs	r2, #1
600030d2:	a90e      	add	r1, sp, #56	; 0x38
600030d4:	4658      	mov	r0, fp
600030d6:	960e      	str	r6, [sp, #56]	; 0x38
600030d8:	b113      	cbz	r3, 600030e0 <DbgConsole_Printf+0x844>
600030da:	f8db 3008 	ldr.w	r3, [fp, #8]
600030de:	4798      	blx	r3
600030e0:	4557      	cmp	r7, sl
600030e2:	dbf2      	blt.n	600030ca <DbgConsole_Printf+0x82e>
600030e4:	ea6f 0709 	mvn.w	r7, r9
600030e8:	9b01      	ldr	r3, [sp, #4]
600030ea:	4457      	add	r7, sl
600030ec:	3301      	adds	r3, #1
600030ee:	45d1      	cmp	r9, sl
600030f0:	bfa8      	it	ge
600030f2:	2700      	movge	r7, #0
600030f4:	18fb      	adds	r3, r7, r3
600030f6:	9301      	str	r3, [sp, #4]
600030f8:	9b09      	ldr	r3, [sp, #36]	; 0x24
600030fa:	2b00      	cmp	r3, #0
600030fc:	f43f ae9e 	beq.w	60002e3c <DbgConsole_Printf+0x5a0>
60003100:	9b0b      	ldr	r3, [sp, #44]	; 0x2c
60003102:	2b00      	cmp	r3, #0
60003104:	f47f ae9a 	bne.w	60002e3c <DbgConsole_Printf+0x5a0>
60003108:	46d1      	mov	r9, sl
6000310a:	e679      	b.n	60002e00 <DbgConsole_Printf+0x564>
6000310c:	9b02      	ldr	r3, [sp, #8]
6000310e:	f853 0b04 	ldr.w	r0, [r3], #4
60003112:	9302      	str	r3, [sp, #8]
60003114:	e54c      	b.n	60002bb0 <DbgConsole_Printf+0x314>
60003116:	45c2      	cmp	sl, r8
60003118:	dd13      	ble.n	60003142 <DbgConsole_Printf+0x8a6>
6000311a:	4645      	mov	r5, r8
6000311c:	2420      	movs	r4, #32
6000311e:	f89b 3010 	ldrb.w	r3, [fp, #16]
60003122:	3501      	adds	r5, #1
60003124:	2201      	movs	r2, #1
60003126:	a90e      	add	r1, sp, #56	; 0x38
60003128:	4658      	mov	r0, fp
6000312a:	940e      	str	r4, [sp, #56]	; 0x38
6000312c:	b113      	cbz	r3, 60003134 <DbgConsole_Printf+0x898>
6000312e:	f8db 3008 	ldr.w	r3, [fp, #8]
60003132:	4798      	blx	r3
60003134:	45aa      	cmp	sl, r5
60003136:	d1f2      	bne.n	6000311e <DbgConsole_Printf+0x882>
60003138:	9b01      	ldr	r3, [sp, #4]
6000313a:	4453      	add	r3, sl
6000313c:	eba3 0308 	sub.w	r3, r3, r8
60003140:	9301      	str	r3, [sp, #4]
60003142:	7833      	ldrb	r3, [r6, #0]
60003144:	2b00      	cmp	r3, #0
60003146:	f47f af43 	bne.w	60002fd0 <DbgConsole_Printf+0x734>
6000314a:	9606      	str	r6, [sp, #24]
6000314c:	e730      	b.n	60002fb0 <DbgConsole_Printf+0x714>
6000314e:	0768      	lsls	r0, r5, #29
60003150:	d54f      	bpl.n	600031f2 <DbgConsole_Printf+0x956>
60003152:	9b09      	ldr	r3, [sp, #36]	; 0x24
60003154:	f108 0801 	add.w	r8, r8, #1
60003158:	2b00      	cmp	r3, #0
6000315a:	f040 8143 	bne.w	600033e4 <DbgConsole_Printf+0xb48>
6000315e:	9b05      	ldr	r3, [sp, #20]
60003160:	2b00      	cmp	r3, #0
60003162:	f000 8156 	beq.w	60003412 <DbgConsole_Printf+0xb76>
60003166:	2320      	movs	r3, #32
60003168:	e704      	b.n	60002f74 <DbgConsole_Printf+0x6d8>
6000316a:	45ca      	cmp	sl, r9
6000316c:	dd13      	ble.n	60003196 <DbgConsole_Printf+0x8fa>
6000316e:	464e      	mov	r6, r9
60003170:	2420      	movs	r4, #32
60003172:	f89b 3010 	ldrb.w	r3, [fp, #16]
60003176:	3601      	adds	r6, #1
60003178:	2201      	movs	r2, #1
6000317a:	a90e      	add	r1, sp, #56	; 0x38
6000317c:	4658      	mov	r0, fp
6000317e:	940e      	str	r4, [sp, #56]	; 0x38
60003180:	b113      	cbz	r3, 60003188 <DbgConsole_Printf+0x8ec>
60003182:	f8db 3008 	ldr.w	r3, [fp, #8]
60003186:	4798      	blx	r3
60003188:	45b2      	cmp	sl, r6
6000318a:	d1f2      	bne.n	60003172 <DbgConsole_Printf+0x8d6>
6000318c:	9b01      	ldr	r3, [sp, #4]
6000318e:	4453      	add	r3, sl
60003190:	eba3 0309 	sub.w	r3, r3, r9
60003194:	9301      	str	r3, [sp, #4]
60003196:	46c8      	mov	r8, r9
60003198:	e650      	b.n	60002e3c <DbgConsole_Printf+0x5a0>
6000319a:	2c69      	cmp	r4, #105	; 0x69
6000319c:	f47f abfc 	bne.w	60002998 <DbgConsole_Printf+0xfc>
600031a0:	e551      	b.n	60002c46 <DbgConsole_Printf+0x3aa>
600031a2:	f015 0308 	ands.w	r3, r5, #8
600031a6:	f108 0801 	add.w	r8, r8, #1
600031aa:	9309      	str	r3, [sp, #36]	; 0x24
600031ac:	f040 8118 	bne.w	600033e0 <DbgConsole_Printf+0xb44>
600031b0:	f04f 0920 	mov.w	r9, #32
600031b4:	e489      	b.n	60002aca <DbgConsole_Printf+0x22e>
600031b6:	45d1      	cmp	r9, sl
600031b8:	46d0      	mov	r8, sl
600031ba:	f6bf ae3f 	bge.w	60002e3c <DbgConsole_Printf+0x5a0>
600031be:	9b09      	ldr	r3, [sp, #36]	; 0x24
600031c0:	930b      	str	r3, [sp, #44]	; 0x2c
600031c2:	e780      	b.n	600030c6 <DbgConsole_Printf+0x82a>
600031c4:	4ba6      	ldr	r3, [pc, #664]	; (60003460 <DbgConsole_Printf+0xbc4>)
600031c6:	40d3      	lsrs	r3, r2
600031c8:	07d9      	lsls	r1, r3, #31
600031ca:	f140 80ef 	bpl.w	600033ac <DbgConsole_Printf+0xb10>
600031ce:	f005 0301 	and.w	r3, r5, #1
600031d2:	9305      	str	r3, [sp, #20]
600031d4:	2301      	movs	r3, #1
600031d6:	9304      	str	r3, [sp, #16]
600031d8:	e634      	b.n	60002e44 <DbgConsole_Printf+0x5a8>
600031da:	2308      	movs	r3, #8
600031dc:	930a      	str	r3, [sp, #40]	; 0x28
600031de:	e65e      	b.n	60002e9e <DbgConsole_Printf+0x602>
600031e0:	ed9d bb0e 	vldr	d11, [sp, #56]	; 0x38
600031e4:	eeb7 7b00 	vmov.f64	d7, #112	; 0x3f800000  1.0
600031e8:	ee3b bb07 	vadd.f64	d11, d11, d7
600031ec:	ed8d bb0e 	vstr	d11, [sp, #56]	; 0x38
600031f0:	e55e      	b.n	60002cb0 <DbgConsole_Printf+0x414>
600031f2:	9b09      	ldr	r3, [sp, #36]	; 0x24
600031f4:	2b00      	cmp	r3, #0
600031f6:	f040 80f7 	bne.w	600033e8 <DbgConsole_Printf+0xb4c>
600031fa:	9b05      	ldr	r3, [sp, #20]
600031fc:	2b00      	cmp	r3, #0
600031fe:	f000 810e 	beq.w	6000341e <DbgConsole_Printf+0xb82>
60003202:	f1a4 0362 	sub.w	r3, r4, #98	; 0x62
60003206:	9308      	str	r3, [sp, #32]
60003208:	b2db      	uxtb	r3, r3
6000320a:	9307      	str	r3, [sp, #28]
6000320c:	e6c6      	b.n	60002f9c <DbgConsole_Printf+0x700>
6000320e:	232b      	movs	r3, #43	; 0x2b
60003210:	930e      	str	r3, [sp, #56]	; 0x38
60003212:	f89b 3010 	ldrb.w	r3, [fp, #16]
60003216:	b12b      	cbz	r3, 60003224 <DbgConsole_Printf+0x988>
60003218:	f8db 3008 	ldr.w	r3, [fp, #8]
6000321c:	2201      	movs	r2, #1
6000321e:	a90e      	add	r1, sp, #56	; 0x38
60003220:	4658      	mov	r0, fp
60003222:	4798      	blx	r3
60003224:	9b01      	ldr	r3, [sp, #4]
60003226:	4647      	mov	r7, r8
60003228:	3301      	adds	r3, #1
6000322a:	9301      	str	r3, [sp, #4]
6000322c:	45c2      	cmp	sl, r8
6000322e:	f340 80e9 	ble.w	60003404 <DbgConsole_Printf+0xb68>
60003232:	2630      	movs	r6, #48	; 0x30
60003234:	f89b 3010 	ldrb.w	r3, [fp, #16]
60003238:	f108 0801 	add.w	r8, r8, #1
6000323c:	2201      	movs	r2, #1
6000323e:	a90e      	add	r1, sp, #56	; 0x38
60003240:	4658      	mov	r0, fp
60003242:	960e      	str	r6, [sp, #56]	; 0x38
60003244:	b113      	cbz	r3, 6000324c <DbgConsole_Printf+0x9b0>
60003246:	f8db 3008 	ldr.w	r3, [fp, #8]
6000324a:	4798      	blx	r3
6000324c:	45c2      	cmp	sl, r8
6000324e:	d1f1      	bne.n	60003234 <DbgConsole_Printf+0x998>
60003250:	9b01      	ldr	r3, [sp, #4]
60003252:	4453      	add	r3, sl
60003254:	1bdb      	subs	r3, r3, r7
60003256:	9301      	str	r3, [sp, #4]
60003258:	f1a4 0362 	sub.w	r3, r4, #98	; 0x62
6000325c:	9308      	str	r3, [sp, #32]
6000325e:	b2db      	uxtb	r3, r3
60003260:	9307      	str	r3, [sp, #28]
60003262:	e69b      	b.n	60002f9c <DbgConsole_Printf+0x700>
60003264:	45d0      	cmp	r8, sl
60003266:	f280 80e0 	bge.w	6000342a <DbgConsole_Printf+0xb8e>
6000326a:	f04f 092d 	mov.w	r9, #45	; 0x2d
6000326e:	4646      	mov	r6, r8
60003270:	2720      	movs	r7, #32
60003272:	f89b 3010 	ldrb.w	r3, [fp, #16]
60003276:	3601      	adds	r6, #1
60003278:	2201      	movs	r2, #1
6000327a:	970e      	str	r7, [sp, #56]	; 0x38
6000327c:	b123      	cbz	r3, 60003288 <DbgConsole_Printf+0x9ec>
6000327e:	f8db 3008 	ldr.w	r3, [fp, #8]
60003282:	a90e      	add	r1, sp, #56	; 0x38
60003284:	4658      	mov	r0, fp
60003286:	4798      	blx	r3
60003288:	45b2      	cmp	sl, r6
6000328a:	dcf2      	bgt.n	60003272 <DbgConsole_Printf+0x9d6>
6000328c:	f10a 33ff 	add.w	r3, sl, #4294967295	; 0xffffffff
60003290:	9a01      	ldr	r2, [sp, #4]
60003292:	eba3 0308 	sub.w	r3, r3, r8
60003296:	3201      	adds	r2, #1
60003298:	45c2      	cmp	sl, r8
6000329a:	bfd8      	it	le
6000329c:	2300      	movle	r3, #0
6000329e:	4413      	add	r3, r2
600032a0:	9301      	str	r3, [sp, #4]
600032a2:	f1b9 0f00 	cmp.w	r9, #0
600032a6:	d0ac      	beq.n	60003202 <DbgConsole_Printf+0x966>
600032a8:	464b      	mov	r3, r9
600032aa:	930e      	str	r3, [sp, #56]	; 0x38
600032ac:	f89b 3010 	ldrb.w	r3, [fp, #16]
600032b0:	b12b      	cbz	r3, 600032be <DbgConsole_Printf+0xa22>
600032b2:	f8db 3008 	ldr.w	r3, [fp, #8]
600032b6:	2201      	movs	r2, #1
600032b8:	a90e      	add	r1, sp, #56	; 0x38
600032ba:	4658      	mov	r0, fp
600032bc:	4798      	blx	r3
600032be:	f1a4 0362 	sub.w	r3, r4, #98	; 0x62
600032c2:	9a01      	ldr	r2, [sp, #4]
600032c4:	9308      	str	r3, [sp, #32]
600032c6:	3201      	adds	r2, #1
600032c8:	b2db      	uxtb	r3, r3
600032ca:	9201      	str	r2, [sp, #4]
600032cc:	9307      	str	r3, [sp, #28]
600032ce:	e665      	b.n	60002f9c <DbgConsole_Printf+0x700>
600032d0:	9b0b      	ldr	r3, [sp, #44]	; 0x2c
600032d2:	9302      	str	r3, [sp, #8]
600032d4:	2301      	movs	r3, #1
600032d6:	9304      	str	r3, [sp, #16]
600032d8:	e5b0      	b.n	60002e3c <DbgConsole_Printf+0x5a0>
600032da:	1c42      	adds	r2, r0, #1
600032dc:	f8df 9184 	ldr.w	r9, [pc, #388]	; 60003464 <DbgConsole_Printf+0xbc8>
600032e0:	fb89 1c03 	smull	r1, ip, r9, r3
600032e4:	17df      	asrs	r7, r3, #31
600032e6:	4619      	mov	r1, r3
600032e8:	3201      	adds	r2, #1
600032ea:	ebc7 03ac 	rsb	r3, r7, ip, asr #2
600032ee:	eb03 0783 	add.w	r7, r3, r3, lsl #2
600032f2:	ebb1 0147 	subs.w	r1, r1, r7, lsl #1
600032f6:	f101 0730 	add.w	r7, r1, #48	; 0x30
600032fa:	bf48      	it	mi
600032fc:	f1c1 0730 	rsbmi	r7, r1, #48	; 0x30
60003300:	4611      	mov	r1, r2
60003302:	f801 7d01 	strb.w	r7, [r1, #-1]!
60003306:	4471      	add	r1, lr
60003308:	1a09      	subs	r1, r1, r0
6000330a:	4688      	mov	r8, r1
6000330c:	2b00      	cmp	r3, #0
6000330e:	d1e7      	bne.n	600032e0 <DbgConsole_Printf+0xa44>
60003310:	f7ff bb63 	b.w	600029da <DbgConsole_Printf+0x13e>
60003314:	ee39 9b47 	vsub.f64	d9, d9, d7
60003318:	f7ff f8b6 	bl	60002488 <pow>
6000331c:	eeb1 0b40 	vneg.f64	d0, d0
60003320:	eeb4 9bc0 	vcmpe.f64	d9, d0
60003324:	eef1 fa10 	vmrs	APSR_nzcv, fpscr
60003328:	f63f acc0 	bhi.w	60002cac <DbgConsole_Printf+0x410>
6000332c:	eeb7 7b00 	vmov.f64	d7, #112	; 0x3f800000  1.0
60003330:	ed9d bb0e 	vldr	d11, [sp, #56]	; 0x38
60003334:	ee3b bb47 	vsub.f64	d11, d11, d7
60003338:	ed8d bb0e 	vstr	d11, [sp, #56]	; 0x38
6000333c:	e4b8      	b.n	60002cb0 <DbgConsole_Printf+0x414>
6000333e:	232d      	movs	r3, #45	; 0x2d
60003340:	930e      	str	r3, [sp, #56]	; 0x38
60003342:	f89b 3010 	ldrb.w	r3, [fp, #16]
60003346:	b12b      	cbz	r3, 60003354 <DbgConsole_Printf+0xab8>
60003348:	f8db 3008 	ldr.w	r3, [fp, #8]
6000334c:	2201      	movs	r2, #1
6000334e:	a90e      	add	r1, sp, #56	; 0x38
60003350:	4658      	mov	r0, fp
60003352:	4798      	blx	r3
60003354:	9b01      	ldr	r3, [sp, #4]
60003356:	4647      	mov	r7, r8
60003358:	3301      	adds	r3, #1
6000335a:	9301      	str	r3, [sp, #4]
6000335c:	45c2      	cmp	sl, r8
6000335e:	dd4b      	ble.n	600033f8 <DbgConsole_Printf+0xb5c>
60003360:	2630      	movs	r6, #48	; 0x30
60003362:	f89b 3010 	ldrb.w	r3, [fp, #16]
60003366:	f108 0801 	add.w	r8, r8, #1
6000336a:	2201      	movs	r2, #1
6000336c:	a90e      	add	r1, sp, #56	; 0x38
6000336e:	4658      	mov	r0, fp
60003370:	960e      	str	r6, [sp, #56]	; 0x38
60003372:	b113      	cbz	r3, 6000337a <DbgConsole_Printf+0xade>
60003374:	f8db 3008 	ldr.w	r3, [fp, #8]
60003378:	4798      	blx	r3
6000337a:	45c2      	cmp	sl, r8
6000337c:	d1f1      	bne.n	60003362 <DbgConsole_Printf+0xac6>
6000337e:	9b01      	ldr	r3, [sp, #4]
60003380:	4453      	add	r3, sl
60003382:	1bdb      	subs	r3, r3, r7
60003384:	9301      	str	r3, [sp, #4]
60003386:	f005 0301 	and.w	r3, r5, #1
6000338a:	9305      	str	r3, [sp, #20]
6000338c:	f7ff bbb0 	b.w	60002af0 <DbgConsole_Printf+0x254>
60003390:	f8cd 9014 	str.w	r9, [sp, #20]
60003394:	f7ff bbac 	b.w	60002af0 <DbgConsole_Printf+0x254>
60003398:	9606      	str	r6, [sp, #24]
6000339a:	e634      	b.n	60003006 <DbgConsole_Printf+0x76a>
6000339c:	232b      	movs	r3, #43	; 0x2b
6000339e:	e7cf      	b.n	60003340 <DbgConsole_Printf+0xaa4>
600033a0:	232d      	movs	r3, #45	; 0x2d
600033a2:	e735      	b.n	60003210 <DbgConsole_Printf+0x974>
600033a4:	4655      	mov	r5, sl
600033a6:	e5d1      	b.n	60002f4c <DbgConsole_Printf+0x6b0>
600033a8:	4647      	mov	r7, r8
600033aa:	e7d7      	b.n	6000335c <DbgConsole_Printf+0xac0>
600033ac:	2c63      	cmp	r4, #99	; 0x63
600033ae:	d13e      	bne.n	6000342e <DbgConsole_Printf+0xb92>
600033b0:	9c02      	ldr	r4, [sp, #8]
600033b2:	f89b 3010 	ldrb.w	r3, [fp, #16]
600033b6:	f854 2b04 	ldr.w	r2, [r4], #4
600033ba:	920e      	str	r2, [sp, #56]	; 0x38
600033bc:	b12b      	cbz	r3, 600033ca <DbgConsole_Printf+0xb2e>
600033be:	f8db 3008 	ldr.w	r3, [fp, #8]
600033c2:	2201      	movs	r2, #1
600033c4:	a90e      	add	r1, sp, #56	; 0x38
600033c6:	4658      	mov	r0, fp
600033c8:	4798      	blx	r3
600033ca:	9b01      	ldr	r3, [sp, #4]
600033cc:	3301      	adds	r3, #1
600033ce:	e9cd 3401 	strd	r3, r4, [sp, #4]
600033d2:	e5ed      	b.n	60002fb0 <DbgConsole_Printf+0x714>
600033d4:	45d0      	cmp	r8, sl
600033d6:	f280 80c4 	bge.w	60003562 <DbgConsole_Printf+0xcc6>
600033da:	f04f 092b 	mov.w	r9, #43	; 0x2b
600033de:	e746      	b.n	6000326e <DbgConsole_Printf+0x9d2>
600033e0:	2320      	movs	r3, #32
600033e2:	e7ad      	b.n	60003340 <DbgConsole_Printf+0xaa4>
600033e4:	2320      	movs	r3, #32
600033e6:	e713      	b.n	60003210 <DbgConsole_Printf+0x974>
600033e8:	4647      	mov	r7, r8
600033ea:	e71f      	b.n	6000322c <DbgConsole_Printf+0x990>
600033ec:	f04f 0e01 	mov.w	lr, #1
600033f0:	f10d 0045 	add.w	r0, sp, #69	; 0x45
600033f4:	ae11      	add	r6, sp, #68	; 0x44
600033f6:	e48a      	b.n	60002d0e <DbgConsole_Printf+0x472>
600033f8:	f005 0301 	and.w	r3, r5, #1
600033fc:	46d0      	mov	r8, sl
600033fe:	9305      	str	r3, [sp, #20]
60003400:	f7ff bb76 	b.w	60002af0 <DbgConsole_Printf+0x254>
60003404:	f1a4 0362 	sub.w	r3, r4, #98	; 0x62
60003408:	46d0      	mov	r8, sl
6000340a:	9308      	str	r3, [sp, #32]
6000340c:	b2db      	uxtb	r3, r3
6000340e:	9307      	str	r3, [sp, #28]
60003410:	e5c4      	b.n	60002f9c <DbgConsole_Printf+0x700>
60003412:	45d0      	cmp	r8, sl
60003414:	f280 80a7 	bge.w	60003566 <DbgConsole_Printf+0xcca>
60003418:	f04f 0920 	mov.w	r9, #32
6000341c:	e727      	b.n	6000326e <DbgConsole_Printf+0x9d2>
6000341e:	45c2      	cmp	sl, r8
60003420:	f77f aeef 	ble.w	60003202 <DbgConsole_Printf+0x966>
60003424:	f8dd 9014 	ldr.w	r9, [sp, #20]
60003428:	e721      	b.n	6000326e <DbgConsole_Printf+0x9d2>
6000342a:	232d      	movs	r3, #45	; 0x2d
6000342c:	e73d      	b.n	600032aa <DbgConsole_Printf+0xa0e>
6000342e:	2c73      	cmp	r4, #115	; 0x73
60003430:	f47f acc7 	bne.w	60002dc2 <DbgConsole_Printf+0x526>
60003434:	9f02      	ldr	r7, [sp, #8]
60003436:	f857 4b04 	ldr.w	r4, [r7], #4
6000343a:	2c00      	cmp	r4, #0
6000343c:	d046      	beq.n	600034cc <DbgConsole_Printf+0xc30>
6000343e:	2e00      	cmp	r6, #0
60003440:	f000 8081 	beq.w	60003546 <DbgConsole_Printf+0xcaa>
60003444:	f015 0501 	ands.w	r5, r5, #1
60003448:	f8dd 8010 	ldr.w	r8, [sp, #16]
6000344c:	d040      	beq.n	600034d0 <DbgConsole_Printf+0xc34>
6000344e:	f1b8 0f00 	cmp.w	r8, #0
60003452:	7823      	ldrb	r3, [r4, #0]
60003454:	dd1e      	ble.n	60003494 <DbgConsole_Printf+0xbf8>
60003456:	b1eb      	cbz	r3, 60003494 <DbgConsole_Printf+0xbf8>
60003458:	9a01      	ldr	r2, [sp, #4]
6000345a:	4442      	add	r2, r8
6000345c:	4616      	mov	r6, r2
6000345e:	e004      	b.n	6000346a <DbgConsole_Printf+0xbce>
60003460:	00086001 	.word	0x00086001
60003464:	66666667 	.word	0x66666667
60003468:	b19b      	cbz	r3, 60003492 <DbgConsole_Printf+0xbf6>
6000346a:	f89b 1010 	ldrb.w	r1, [fp, #16]
6000346e:	2201      	movs	r2, #1
60003470:	930e      	str	r3, [sp, #56]	; 0x38
60003472:	b121      	cbz	r1, 6000347e <DbgConsole_Printf+0xbe2>
60003474:	f8db 3008 	ldr.w	r3, [fp, #8]
60003478:	a90e      	add	r1, sp, #56	; 0x38
6000347a:	4658      	mov	r0, fp
6000347c:	4798      	blx	r3
6000347e:	1c72      	adds	r2, r6, #1
60003480:	f814 3f01 	ldrb.w	r3, [r4, #1]!
60003484:	eba2 0208 	sub.w	r2, r2, r8
60003488:	f108 38ff 	add.w	r8, r8, #4294967295	; 0xffffffff
6000348c:	f1b8 0f00 	cmp.w	r8, #0
60003490:	dcea      	bgt.n	60003468 <DbgConsole_Printf+0xbcc>
60003492:	9201      	str	r2, [sp, #4]
60003494:	9b04      	ldr	r3, [sp, #16]
60003496:	eba3 0808 	sub.w	r8, r3, r8
6000349a:	b1bd      	cbz	r5, 600034cc <DbgConsole_Printf+0xc30>
6000349c:	45c2      	cmp	sl, r8
6000349e:	dd15      	ble.n	600034cc <DbgConsole_Printf+0xc30>
600034a0:	4644      	mov	r4, r8
600034a2:	2520      	movs	r5, #32
600034a4:	f89b 3010 	ldrb.w	r3, [fp, #16]
600034a8:	3401      	adds	r4, #1
600034aa:	2201      	movs	r2, #1
600034ac:	950e      	str	r5, [sp, #56]	; 0x38
600034ae:	b123      	cbz	r3, 600034ba <DbgConsole_Printf+0xc1e>
600034b0:	f8db 3008 	ldr.w	r3, [fp, #8]
600034b4:	a90e      	add	r1, sp, #56	; 0x38
600034b6:	4658      	mov	r0, fp
600034b8:	4798      	blx	r3
600034ba:	45a2      	cmp	sl, r4
600034bc:	d1f2      	bne.n	600034a4 <DbgConsole_Printf+0xc08>
600034be:	9b01      	ldr	r3, [sp, #4]
600034c0:	9702      	str	r7, [sp, #8]
600034c2:	4453      	add	r3, sl
600034c4:	eba3 0308 	sub.w	r3, r3, r8
600034c8:	9301      	str	r3, [sp, #4]
600034ca:	e571      	b.n	60002fb0 <DbgConsole_Printf+0x714>
600034cc:	9702      	str	r7, [sp, #8]
600034ce:	e56f      	b.n	60002fb0 <DbgConsole_Printf+0x714>
600034d0:	9b04      	ldr	r3, [sp, #16]
600034d2:	459a      	cmp	sl, r3
600034d4:	dd2f      	ble.n	60003536 <DbgConsole_Printf+0xc9a>
600034d6:	4645      	mov	r5, r8
600034d8:	f04f 0920 	mov.w	r9, #32
600034dc:	f89b 3010 	ldrb.w	r3, [fp, #16]
600034e0:	3501      	adds	r5, #1
600034e2:	2201      	movs	r2, #1
600034e4:	f8cd 9038 	str.w	r9, [sp, #56]	; 0x38
600034e8:	b123      	cbz	r3, 600034f4 <DbgConsole_Printf+0xc58>
600034ea:	f8db 3008 	ldr.w	r3, [fp, #8]
600034ee:	a90e      	add	r1, sp, #56	; 0x38
600034f0:	4658      	mov	r0, fp
600034f2:	4798      	blx	r3
600034f4:	4555      	cmp	r5, sl
600034f6:	d1f1      	bne.n	600034dc <DbgConsole_Printf+0xc40>
600034f8:	9b01      	ldr	r3, [sp, #4]
600034fa:	4453      	add	r3, sl
600034fc:	eba3 0308 	sub.w	r3, r3, r8
60003500:	9301      	str	r3, [sp, #4]
60003502:	b9c6      	cbnz	r6, 60003536 <DbgConsole_Printf+0xc9a>
60003504:	7823      	ldrb	r3, [r4, #0]
60003506:	2b00      	cmp	r3, #0
60003508:	d0e0      	beq.n	600034cc <DbgConsole_Printf+0xc30>
6000350a:	2500      	movs	r5, #0
6000350c:	f1c4 0601 	rsb	r6, r4, #1
60003510:	f89b 1010 	ldrb.w	r1, [fp, #16]
60003514:	2201      	movs	r2, #1
60003516:	930e      	str	r3, [sp, #56]	; 0x38
60003518:	b121      	cbz	r1, 60003524 <DbgConsole_Printf+0xc88>
6000351a:	f8db 3008 	ldr.w	r3, [fp, #8]
6000351e:	a90e      	add	r1, sp, #56	; 0x38
60003520:	4658      	mov	r0, fp
60003522:	4798      	blx	r3
60003524:	9b01      	ldr	r3, [sp, #4]
60003526:	18f2      	adds	r2, r6, r3
60003528:	4422      	add	r2, r4
6000352a:	f814 3f01 	ldrb.w	r3, [r4, #1]!
6000352e:	2b00      	cmp	r3, #0
60003530:	d1ee      	bne.n	60003510 <DbgConsole_Printf+0xc74>
60003532:	9201      	str	r2, [sp, #4]
60003534:	e7b1      	b.n	6000349a <DbgConsole_Printf+0xbfe>
60003536:	2500      	movs	r5, #0
60003538:	e789      	b.n	6000344e <DbgConsole_Printf+0xbb2>
6000353a:	2301      	movs	r3, #1
6000353c:	9304      	str	r3, [sp, #16]
6000353e:	e481      	b.n	60002e44 <DbgConsole_Printf+0x5a8>
60003540:	4645      	mov	r5, r8
60003542:	9e06      	ldr	r6, [sp, #24]
60003544:	e502      	b.n	60002f4c <DbgConsole_Printf+0x6b0>
60003546:	4620      	mov	r0, r4
60003548:	f003 f8ee 	bl	60006728 <strlen>
6000354c:	f015 0501 	ands.w	r5, r5, #1
60003550:	4680      	mov	r8, r0
60003552:	d003      	beq.n	6000355c <DbgConsole_Printf+0xcc0>
60003554:	7823      	ldrb	r3, [r4, #0]
60003556:	2b00      	cmp	r3, #0
60003558:	d1d8      	bne.n	6000350c <DbgConsole_Printf+0xc70>
6000355a:	e79f      	b.n	6000349c <DbgConsole_Printf+0xc00>
6000355c:	4550      	cmp	r0, sl
6000355e:	dbba      	blt.n	600034d6 <DbgConsole_Printf+0xc3a>
60003560:	e7d0      	b.n	60003504 <DbgConsole_Printf+0xc68>
60003562:	232b      	movs	r3, #43	; 0x2b
60003564:	e6a1      	b.n	600032aa <DbgConsole_Printf+0xa0e>
60003566:	2320      	movs	r3, #32
60003568:	e69f      	b.n	600032aa <DbgConsole_Printf+0xa0e>
6000356a:	bf00      	nop

6000356c <DMA0_DMA16_IRQHandler>:
6000356c:	b508      	push	{r3, lr}
6000356e:	f7fe fedb 	bl	60002328 <ACMP1_DriverIRQHandler>
60003572:	bd08      	pop	{r3, pc}

60003574 <DMA1_DMA17_IRQHandler>:
60003574:	b508      	push	{r3, lr}
60003576:	f7fe fed7 	bl	60002328 <ACMP1_DriverIRQHandler>
6000357a:	bd08      	pop	{r3, pc}

6000357c <DMA2_DMA18_IRQHandler>:
6000357c:	b508      	push	{r3, lr}
6000357e:	f7fe fed3 	bl	60002328 <ACMP1_DriverIRQHandler>
60003582:	bd08      	pop	{r3, pc}

60003584 <DMA3_DMA19_IRQHandler>:
60003584:	b508      	push	{r3, lr}
60003586:	f7fe fecf 	bl	60002328 <ACMP1_DriverIRQHandler>
6000358a:	bd08      	pop	{r3, pc}

6000358c <DMA4_DMA20_IRQHandler>:
6000358c:	b508      	push	{r3, lr}
6000358e:	f7fe fecb 	bl	60002328 <ACMP1_DriverIRQHandler>
60003592:	bd08      	pop	{r3, pc}

60003594 <DMA5_DMA21_IRQHandler>:
60003594:	b508      	push	{r3, lr}
60003596:	f7fe fec7 	bl	60002328 <ACMP1_DriverIRQHandler>
6000359a:	bd08      	pop	{r3, pc}

6000359c <DMA6_DMA22_IRQHandler>:
6000359c:	b508      	push	{r3, lr}
6000359e:	f7fe fec3 	bl	60002328 <ACMP1_DriverIRQHandler>
600035a2:	bd08      	pop	{r3, pc}

600035a4 <DMA7_DMA23_IRQHandler>:
600035a4:	b508      	push	{r3, lr}
600035a6:	f7fe febf 	bl	60002328 <ACMP1_DriverIRQHandler>
600035aa:	bd08      	pop	{r3, pc}

600035ac <DMA8_DMA24_IRQHandler>:
600035ac:	b508      	push	{r3, lr}
600035ae:	f7fe febb 	bl	60002328 <ACMP1_DriverIRQHandler>
600035b2:	bd08      	pop	{r3, pc}

600035b4 <DMA9_DMA25_IRQHandler>:
600035b4:	b508      	push	{r3, lr}
600035b6:	f7fe feb7 	bl	60002328 <ACMP1_DriverIRQHandler>
600035ba:	bd08      	pop	{r3, pc}

600035bc <DMA10_DMA26_IRQHandler>:
600035bc:	b508      	push	{r3, lr}
600035be:	f7fe feb3 	bl	60002328 <ACMP1_DriverIRQHandler>
600035c2:	bd08      	pop	{r3, pc}

600035c4 <DMA11_DMA27_IRQHandler>:
600035c4:	b508      	push	{r3, lr}
600035c6:	f7fe feaf 	bl	60002328 <ACMP1_DriverIRQHandler>
600035ca:	bd08      	pop	{r3, pc}

600035cc <DMA12_DMA28_IRQHandler>:
600035cc:	b508      	push	{r3, lr}
600035ce:	f7fe feab 	bl	60002328 <ACMP1_DriverIRQHandler>
600035d2:	bd08      	pop	{r3, pc}

600035d4 <DMA13_DMA29_IRQHandler>:
600035d4:	b508      	push	{r3, lr}
600035d6:	f7fe fea7 	bl	60002328 <ACMP1_DriverIRQHandler>
600035da:	bd08      	pop	{r3, pc}

600035dc <DMA14_DMA30_IRQHandler>:
600035dc:	b508      	push	{r3, lr}
600035de:	f7fe fea3 	bl	60002328 <ACMP1_DriverIRQHandler>
600035e2:	bd08      	pop	{r3, pc}

600035e4 <DMA15_DMA31_IRQHandler>:
600035e4:	b508      	push	{r3, lr}
600035e6:	f7fe fe9f 	bl	60002328 <ACMP1_DriverIRQHandler>
600035ea:	bd08      	pop	{r3, pc}

600035ec <DMA_ERROR_IRQHandler>:
600035ec:	b508      	push	{r3, lr}
600035ee:	f7fe fe9b 	bl	60002328 <ACMP1_DriverIRQHandler>
600035f2:	bd08      	pop	{r3, pc}

600035f4 <CTI0_ERROR_IRQHandler>:
600035f4:	b508      	push	{r3, lr}
600035f6:	f7fe fe97 	bl	60002328 <ACMP1_DriverIRQHandler>
600035fa:	bd08      	pop	{r3, pc}

600035fc <CTI1_ERROR_IRQHandler>:
600035fc:	b508      	push	{r3, lr}
600035fe:	f7fe fe93 	bl	60002328 <ACMP1_DriverIRQHandler>
60003602:	bd08      	pop	{r3, pc}

60003604 <CORE_IRQHandler>:
60003604:	b508      	push	{r3, lr}
60003606:	f7fe fe8f 	bl	60002328 <ACMP1_DriverIRQHandler>
6000360a:	bd08      	pop	{r3, pc}

6000360c <LPUART1_IRQHandler>:
6000360c:	b508      	push	{r3, lr}
6000360e:	f000 fdeb 	bl	600041e8 <LPUART1_DriverIRQHandler>
60003612:	bd08      	pop	{r3, pc}

60003614 <LPUART2_IRQHandler>:
60003614:	b508      	push	{r3, lr}
60003616:	f000 fdf7 	bl	60004208 <LPUART2_DriverIRQHandler>
6000361a:	bd08      	pop	{r3, pc}

6000361c <LPUART3_IRQHandler>:
6000361c:	b508      	push	{r3, lr}
6000361e:	f000 fe03 	bl	60004228 <LPUART3_DriverIRQHandler>
60003622:	bd08      	pop	{r3, pc}

60003624 <LPUART4_IRQHandler>:
60003624:	b508      	push	{r3, lr}
60003626:	f000 fe0f 	bl	60004248 <LPUART4_DriverIRQHandler>
6000362a:	bd08      	pop	{r3, pc}

6000362c <LPUART5_IRQHandler>:
6000362c:	b508      	push	{r3, lr}
6000362e:	f000 fe1b 	bl	60004268 <LPUART5_DriverIRQHandler>
60003632:	bd08      	pop	{r3, pc}

60003634 <LPUART6_IRQHandler>:
60003634:	b508      	push	{r3, lr}
60003636:	f000 fe27 	bl	60004288 <LPUART6_DriverIRQHandler>
6000363a:	bd08      	pop	{r3, pc}

6000363c <LPUART7_IRQHandler>:
6000363c:	b508      	push	{r3, lr}
6000363e:	f000 fe33 	bl	600042a8 <LPUART7_DriverIRQHandler>
60003642:	bd08      	pop	{r3, pc}

60003644 <LPUART8_IRQHandler>:
60003644:	b508      	push	{r3, lr}
60003646:	f000 fe3f 	bl	600042c8 <LPUART8_DriverIRQHandler>
6000364a:	bd08      	pop	{r3, pc}

6000364c <LPI2C1_IRQHandler>:
6000364c:	b508      	push	{r3, lr}
6000364e:	f7fe fe6b 	bl	60002328 <ACMP1_DriverIRQHandler>
60003652:	bd08      	pop	{r3, pc}

60003654 <LPI2C2_IRQHandler>:
60003654:	b508      	push	{r3, lr}
60003656:	f7fe fe67 	bl	60002328 <ACMP1_DriverIRQHandler>
6000365a:	bd08      	pop	{r3, pc}

6000365c <LPI2C3_IRQHandler>:
6000365c:	b508      	push	{r3, lr}
6000365e:	f7fe fe63 	bl	60002328 <ACMP1_DriverIRQHandler>
60003662:	bd08      	pop	{r3, pc}

60003664 <LPI2C4_IRQHandler>:
60003664:	b508      	push	{r3, lr}
60003666:	f7fe fe5f 	bl	60002328 <ACMP1_DriverIRQHandler>
6000366a:	bd08      	pop	{r3, pc}

6000366c <LPSPI1_IRQHandler>:
6000366c:	b508      	push	{r3, lr}
6000366e:	f7fe fe5b 	bl	60002328 <ACMP1_DriverIRQHandler>
60003672:	bd08      	pop	{r3, pc}

60003674 <LPSPI2_IRQHandler>:
60003674:	b508      	push	{r3, lr}
60003676:	f7fe fe57 	bl	60002328 <ACMP1_DriverIRQHandler>
6000367a:	bd08      	pop	{r3, pc}

6000367c <LPSPI3_IRQHandler>:
6000367c:	b508      	push	{r3, lr}
6000367e:	f7fe fe53 	bl	60002328 <ACMP1_DriverIRQHandler>
60003682:	bd08      	pop	{r3, pc}

60003684 <LPSPI4_IRQHandler>:
60003684:	b508      	push	{r3, lr}
60003686:	f7fe fe4f 	bl	60002328 <ACMP1_DriverIRQHandler>
6000368a:	bd08      	pop	{r3, pc}

6000368c <CAN1_IRQHandler>:
6000368c:	b508      	push	{r3, lr}
6000368e:	f7fe fe4b 	bl	60002328 <ACMP1_DriverIRQHandler>
60003692:	bd08      	pop	{r3, pc}

60003694 <CAN2_IRQHandler>:
60003694:	b508      	push	{r3, lr}
60003696:	f7fe fe47 	bl	60002328 <ACMP1_DriverIRQHandler>
6000369a:	bd08      	pop	{r3, pc}

6000369c <FLEXRAM_IRQHandler>:
6000369c:	b508      	push	{r3, lr}
6000369e:	f7fe fe43 	bl	60002328 <ACMP1_DriverIRQHandler>
600036a2:	bd08      	pop	{r3, pc}

600036a4 <KPP_IRQHandler>:
600036a4:	b508      	push	{r3, lr}
600036a6:	f7fe fe3f 	bl	60002328 <ACMP1_DriverIRQHandler>
600036aa:	bd08      	pop	{r3, pc}

600036ac <TSC_DIG_IRQHandler>:
600036ac:	b508      	push	{r3, lr}
600036ae:	f7fe fe3b 	bl	60002328 <ACMP1_DriverIRQHandler>
600036b2:	bd08      	pop	{r3, pc}

600036b4 <GPR_IRQ_IRQHandler>:
600036b4:	b508      	push	{r3, lr}
600036b6:	f7fe fe37 	bl	60002328 <ACMP1_DriverIRQHandler>
600036ba:	bd08      	pop	{r3, pc}

600036bc <LCDIF_IRQHandler>:
600036bc:	b508      	push	{r3, lr}
600036be:	f7fe fe33 	bl	60002328 <ACMP1_DriverIRQHandler>
600036c2:	bd08      	pop	{r3, pc}

600036c4 <CSI_IRQHandler>:
600036c4:	b508      	push	{r3, lr}
600036c6:	f7fe fe2f 	bl	60002328 <ACMP1_DriverIRQHandler>
600036ca:	bd08      	pop	{r3, pc}

600036cc <PXP_IRQHandler>:
600036cc:	b508      	push	{r3, lr}
600036ce:	f7fe fe2b 	bl	60002328 <ACMP1_DriverIRQHandler>
600036d2:	bd08      	pop	{r3, pc}

600036d4 <WDOG2_IRQHandler>:
600036d4:	b508      	push	{r3, lr}
600036d6:	f7fe fe27 	bl	60002328 <ACMP1_DriverIRQHandler>
600036da:	bd08      	pop	{r3, pc}

600036dc <SNVS_HP_WRAPPER_IRQHandler>:
600036dc:	b508      	push	{r3, lr}
600036de:	f7fe fe23 	bl	60002328 <ACMP1_DriverIRQHandler>
600036e2:	bd08      	pop	{r3, pc}

600036e4 <SNVS_HP_WRAPPER_TZ_IRQHandler>:
600036e4:	b508      	push	{r3, lr}
600036e6:	f7fe fe1f 	bl	60002328 <ACMP1_DriverIRQHandler>
600036ea:	bd08      	pop	{r3, pc}

600036ec <SNVS_LP_WRAPPER_IRQHandler>:
600036ec:	b508      	push	{r3, lr}
600036ee:	f7fe fe1b 	bl	60002328 <ACMP1_DriverIRQHandler>
600036f2:	bd08      	pop	{r3, pc}

600036f4 <CSU_IRQHandler>:
600036f4:	b508      	push	{r3, lr}
600036f6:	f7fe fe17 	bl	60002328 <ACMP1_DriverIRQHandler>
600036fa:	bd08      	pop	{r3, pc}

600036fc <DCP_IRQHandler>:
600036fc:	b508      	push	{r3, lr}
600036fe:	f7fe fe13 	bl	60002328 <ACMP1_DriverIRQHandler>
60003702:	bd08      	pop	{r3, pc}

60003704 <DCP_VMI_IRQHandler>:
60003704:	b508      	push	{r3, lr}
60003706:	f7fe fe0f 	bl	60002328 <ACMP1_DriverIRQHandler>
6000370a:	bd08      	pop	{r3, pc}

6000370c <Reserved68_IRQHandler>:
6000370c:	b508      	push	{r3, lr}
6000370e:	f7fe fe0b 	bl	60002328 <ACMP1_DriverIRQHandler>
60003712:	bd08      	pop	{r3, pc}

60003714 <TRNG_IRQHandler>:
60003714:	b508      	push	{r3, lr}
60003716:	f7fe fe07 	bl	60002328 <ACMP1_DriverIRQHandler>
6000371a:	bd08      	pop	{r3, pc}

6000371c <SJC_IRQHandler>:
6000371c:	b508      	push	{r3, lr}
6000371e:	f7fe fe03 	bl	60002328 <ACMP1_DriverIRQHandler>
60003722:	bd08      	pop	{r3, pc}

60003724 <BEE_IRQHandler>:
60003724:	b508      	push	{r3, lr}
60003726:	f7fe fdff 	bl	60002328 <ACMP1_DriverIRQHandler>
6000372a:	bd08      	pop	{r3, pc}

6000372c <SAI1_IRQHandler>:
6000372c:	b508      	push	{r3, lr}
6000372e:	f7fe fdfb 	bl	60002328 <ACMP1_DriverIRQHandler>
60003732:	bd08      	pop	{r3, pc}

60003734 <SAI2_IRQHandler>:
60003734:	b508      	push	{r3, lr}
60003736:	f7fe fdf7 	bl	60002328 <ACMP1_DriverIRQHandler>
6000373a:	bd08      	pop	{r3, pc}

6000373c <SAI3_RX_IRQHandler>:
6000373c:	b508      	push	{r3, lr}
6000373e:	f7fe fdf3 	bl	60002328 <ACMP1_DriverIRQHandler>
60003742:	bd08      	pop	{r3, pc}

60003744 <SAI3_TX_IRQHandler>:
60003744:	b508      	push	{r3, lr}
60003746:	f7fe fdef 	bl	60002328 <ACMP1_DriverIRQHandler>
6000374a:	bd08      	pop	{r3, pc}

6000374c <SPDIF_IRQHandler>:
6000374c:	b508      	push	{r3, lr}
6000374e:	f7fe fdeb 	bl	60002328 <ACMP1_DriverIRQHandler>
60003752:	bd08      	pop	{r3, pc}

60003754 <PMU_EVENT_IRQHandler>:
60003754:	b508      	push	{r3, lr}
60003756:	f7fe fde7 	bl	60002328 <ACMP1_DriverIRQHandler>
6000375a:	bd08      	pop	{r3, pc}

6000375c <Reserved78_IRQHandler>:
6000375c:	b508      	push	{r3, lr}
6000375e:	f7fe fde3 	bl	60002328 <ACMP1_DriverIRQHandler>
60003762:	bd08      	pop	{r3, pc}

60003764 <TEMP_LOW_HIGH_IRQHandler>:
60003764:	b508      	push	{r3, lr}
60003766:	f7fe fddf 	bl	60002328 <ACMP1_DriverIRQHandler>
6000376a:	bd08      	pop	{r3, pc}

6000376c <TEMP_PANIC_IRQHandler>:
6000376c:	b508      	push	{r3, lr}
6000376e:	f7fe fddb 	bl	60002328 <ACMP1_DriverIRQHandler>
60003772:	bd08      	pop	{r3, pc}

60003774 <USB_PHY1_IRQHandler>:
60003774:	b508      	push	{r3, lr}
60003776:	f7fe fdd7 	bl	60002328 <ACMP1_DriverIRQHandler>
6000377a:	bd08      	pop	{r3, pc}

6000377c <USB_PHY2_IRQHandler>:
6000377c:	b508      	push	{r3, lr}
6000377e:	f7fe fdd3 	bl	60002328 <ACMP1_DriverIRQHandler>
60003782:	bd08      	pop	{r3, pc}

60003784 <ADC1_IRQHandler>:
60003784:	b508      	push	{r3, lr}
60003786:	f7fe fdcf 	bl	60002328 <ACMP1_DriverIRQHandler>
6000378a:	bd08      	pop	{r3, pc}

6000378c <ADC2_IRQHandler>:
6000378c:	b508      	push	{r3, lr}
6000378e:	f7fe fdcb 	bl	60002328 <ACMP1_DriverIRQHandler>
60003792:	bd08      	pop	{r3, pc}

60003794 <DCDC_IRQHandler>:
60003794:	b508      	push	{r3, lr}
60003796:	f7fe fdc7 	bl	60002328 <ACMP1_DriverIRQHandler>
6000379a:	bd08      	pop	{r3, pc}

6000379c <Reserved86_IRQHandler>:
6000379c:	b508      	push	{r3, lr}
6000379e:	f7fe fdc3 	bl	60002328 <ACMP1_DriverIRQHandler>
600037a2:	bd08      	pop	{r3, pc}

600037a4 <Reserved87_IRQHandler>:
600037a4:	b508      	push	{r3, lr}
600037a6:	f7fe fdbf 	bl	60002328 <ACMP1_DriverIRQHandler>
600037aa:	bd08      	pop	{r3, pc}

600037ac <GPIO1_INT0_IRQHandler>:
600037ac:	b508      	push	{r3, lr}
600037ae:	f7fe fdbb 	bl	60002328 <ACMP1_DriverIRQHandler>
600037b2:	bd08      	pop	{r3, pc}

600037b4 <GPIO1_INT1_IRQHandler>:
600037b4:	b508      	push	{r3, lr}
600037b6:	f7fe fdb7 	bl	60002328 <ACMP1_DriverIRQHandler>
600037ba:	bd08      	pop	{r3, pc}

600037bc <GPIO1_INT2_IRQHandler>:
600037bc:	b508      	push	{r3, lr}
600037be:	f7fe fdb3 	bl	60002328 <ACMP1_DriverIRQHandler>
600037c2:	bd08      	pop	{r3, pc}

600037c4 <GPIO1_INT3_IRQHandler>:
600037c4:	b508      	push	{r3, lr}
600037c6:	f7fe fdaf 	bl	60002328 <ACMP1_DriverIRQHandler>
600037ca:	bd08      	pop	{r3, pc}

600037cc <GPIO1_INT4_IRQHandler>:
600037cc:	b508      	push	{r3, lr}
600037ce:	f7fe fdab 	bl	60002328 <ACMP1_DriverIRQHandler>
600037d2:	bd08      	pop	{r3, pc}

600037d4 <GPIO1_INT5_IRQHandler>:
600037d4:	b508      	push	{r3, lr}
600037d6:	f7fe fda7 	bl	60002328 <ACMP1_DriverIRQHandler>
600037da:	bd08      	pop	{r3, pc}

600037dc <GPIO1_INT6_IRQHandler>:
600037dc:	b508      	push	{r3, lr}
600037de:	f7fe fda3 	bl	60002328 <ACMP1_DriverIRQHandler>
600037e2:	bd08      	pop	{r3, pc}

600037e4 <GPIO1_INT7_IRQHandler>:
600037e4:	b508      	push	{r3, lr}
600037e6:	f7fe fd9f 	bl	60002328 <ACMP1_DriverIRQHandler>
600037ea:	bd08      	pop	{r3, pc}

600037ec <GPIO1_Combined_0_15_IRQHandler>:
600037ec:	b508      	push	{r3, lr}
600037ee:	f7fe fd9b 	bl	60002328 <ACMP1_DriverIRQHandler>
600037f2:	bd08      	pop	{r3, pc}

600037f4 <GPIO1_Combined_16_31_IRQHandler>:
600037f4:	b508      	push	{r3, lr}
600037f6:	f7fe fd97 	bl	60002328 <ACMP1_DriverIRQHandler>
600037fa:	bd08      	pop	{r3, pc}

600037fc <GPIO2_Combined_0_15_IRQHandler>:
600037fc:	b508      	push	{r3, lr}
600037fe:	f7fe fd93 	bl	60002328 <ACMP1_DriverIRQHandler>
60003802:	bd08      	pop	{r3, pc}

60003804 <GPIO2_Combined_16_31_IRQHandler>:
60003804:	b508      	push	{r3, lr}
60003806:	f7fe fd8f 	bl	60002328 <ACMP1_DriverIRQHandler>
6000380a:	bd08      	pop	{r3, pc}

6000380c <GPIO3_Combined_0_15_IRQHandler>:
6000380c:	b508      	push	{r3, lr}
6000380e:	f7fe fd8b 	bl	60002328 <ACMP1_DriverIRQHandler>
60003812:	bd08      	pop	{r3, pc}

60003814 <GPIO3_Combined_16_31_IRQHandler>:
60003814:	b508      	push	{r3, lr}
60003816:	f7fe fd87 	bl	60002328 <ACMP1_DriverIRQHandler>
6000381a:	bd08      	pop	{r3, pc}

6000381c <GPIO4_Combined_0_15_IRQHandler>:
6000381c:	b508      	push	{r3, lr}
6000381e:	f7fe fd83 	bl	60002328 <ACMP1_DriverIRQHandler>
60003822:	bd08      	pop	{r3, pc}

60003824 <GPIO4_Combined_16_31_IRQHandler>:
60003824:	b508      	push	{r3, lr}
60003826:	f7fe fd7f 	bl	60002328 <ACMP1_DriverIRQHandler>
6000382a:	bd08      	pop	{r3, pc}

6000382c <GPIO5_Combined_0_15_IRQHandler>:
6000382c:	b508      	push	{r3, lr}
6000382e:	f7fe fd7b 	bl	60002328 <ACMP1_DriverIRQHandler>
60003832:	bd08      	pop	{r3, pc}

60003834 <GPIO5_Combined_16_31_IRQHandler>:
60003834:	b508      	push	{r3, lr}
60003836:	f7fe fd77 	bl	60002328 <ACMP1_DriverIRQHandler>
6000383a:	bd08      	pop	{r3, pc}

6000383c <FLEXIO1_IRQHandler>:
6000383c:	b508      	push	{r3, lr}
6000383e:	f7fe fd73 	bl	60002328 <ACMP1_DriverIRQHandler>
60003842:	bd08      	pop	{r3, pc}

60003844 <FLEXIO2_IRQHandler>:
60003844:	b508      	push	{r3, lr}
60003846:	f7fe fd6f 	bl	60002328 <ACMP1_DriverIRQHandler>
6000384a:	bd08      	pop	{r3, pc}

6000384c <WDOG1_IRQHandler>:
6000384c:	b508      	push	{r3, lr}
6000384e:	f7fe fd6b 	bl	60002328 <ACMP1_DriverIRQHandler>
60003852:	bd08      	pop	{r3, pc}

60003854 <RTWDOG_IRQHandler>:
60003854:	b508      	push	{r3, lr}
60003856:	f7fe fd67 	bl	60002328 <ACMP1_DriverIRQHandler>
6000385a:	bd08      	pop	{r3, pc}

6000385c <EWM_IRQHandler>:
6000385c:	b508      	push	{r3, lr}
6000385e:	f7fe fd63 	bl	60002328 <ACMP1_DriverIRQHandler>
60003862:	bd08      	pop	{r3, pc}

60003864 <CCM_1_IRQHandler>:
60003864:	b508      	push	{r3, lr}
60003866:	f7fe fd5f 	bl	60002328 <ACMP1_DriverIRQHandler>
6000386a:	bd08      	pop	{r3, pc}

6000386c <CCM_2_IRQHandler>:
6000386c:	b508      	push	{r3, lr}
6000386e:	f7fe fd5b 	bl	60002328 <ACMP1_DriverIRQHandler>
60003872:	bd08      	pop	{r3, pc}

60003874 <GPC_IRQHandler>:
60003874:	b508      	push	{r3, lr}
60003876:	f7fe fd57 	bl	60002328 <ACMP1_DriverIRQHandler>
6000387a:	bd08      	pop	{r3, pc}

6000387c <SRC_IRQHandler>:
6000387c:	b508      	push	{r3, lr}
6000387e:	f7fe fd53 	bl	60002328 <ACMP1_DriverIRQHandler>
60003882:	bd08      	pop	{r3, pc}

60003884 <Reserved115_IRQHandler>:
60003884:	b508      	push	{r3, lr}
60003886:	f7fe fd4f 	bl	60002328 <ACMP1_DriverIRQHandler>
6000388a:	bd08      	pop	{r3, pc}

6000388c <GPT1_IRQHandler>:
6000388c:	b508      	push	{r3, lr}
6000388e:	f7fe fd4b 	bl	60002328 <ACMP1_DriverIRQHandler>
60003892:	bd08      	pop	{r3, pc}

60003894 <GPT2_IRQHandler>:
60003894:	b508      	push	{r3, lr}
60003896:	f7fe fd47 	bl	60002328 <ACMP1_DriverIRQHandler>
6000389a:	bd08      	pop	{r3, pc}

6000389c <PWM1_0_IRQHandler>:
6000389c:	b508      	push	{r3, lr}
6000389e:	f7fe fd43 	bl	60002328 <ACMP1_DriverIRQHandler>
600038a2:	bd08      	pop	{r3, pc}

600038a4 <PWM1_1_IRQHandler>:
600038a4:	b508      	push	{r3, lr}
600038a6:	f7fe fd3f 	bl	60002328 <ACMP1_DriverIRQHandler>
600038aa:	bd08      	pop	{r3, pc}

600038ac <PWM1_2_IRQHandler>:
600038ac:	b508      	push	{r3, lr}
600038ae:	f7fe fd3b 	bl	60002328 <ACMP1_DriverIRQHandler>
600038b2:	bd08      	pop	{r3, pc}

600038b4 <PWM1_3_IRQHandler>:
600038b4:	b508      	push	{r3, lr}
600038b6:	f7fe fd37 	bl	60002328 <ACMP1_DriverIRQHandler>
600038ba:	bd08      	pop	{r3, pc}

600038bc <PWM1_FAULT_IRQHandler>:
600038bc:	b508      	push	{r3, lr}
600038be:	f7fe fd33 	bl	60002328 <ACMP1_DriverIRQHandler>
600038c2:	bd08      	pop	{r3, pc}

600038c4 <Reserved123_IRQHandler>:
600038c4:	b508      	push	{r3, lr}
600038c6:	f7fe fd2f 	bl	60002328 <ACMP1_DriverIRQHandler>
600038ca:	bd08      	pop	{r3, pc}

600038cc <FLEXSPI_IRQHandler>:
600038cc:	b508      	push	{r3, lr}
600038ce:	f7fe fd2b 	bl	60002328 <ACMP1_DriverIRQHandler>
600038d2:	bd08      	pop	{r3, pc}

600038d4 <SEMC_IRQHandler>:
600038d4:	b508      	push	{r3, lr}
600038d6:	f7fe fd27 	bl	60002328 <ACMP1_DriverIRQHandler>
600038da:	bd08      	pop	{r3, pc}

600038dc <USDHC1_IRQHandler>:
600038dc:	b508      	push	{r3, lr}
600038de:	f7fe fd23 	bl	60002328 <ACMP1_DriverIRQHandler>
600038e2:	bd08      	pop	{r3, pc}

600038e4 <USDHC2_IRQHandler>:
600038e4:	b508      	push	{r3, lr}
600038e6:	f7fe fd1f 	bl	60002328 <ACMP1_DriverIRQHandler>
600038ea:	bd08      	pop	{r3, pc}

600038ec <USB_OTG2_IRQHandler>:
600038ec:	b508      	push	{r3, lr}
600038ee:	f7fe fd1b 	bl	60002328 <ACMP1_DriverIRQHandler>
600038f2:	bd08      	pop	{r3, pc}

600038f4 <USB_OTG1_IRQHandler>:
600038f4:	b508      	push	{r3, lr}
600038f6:	f7fe fd17 	bl	60002328 <ACMP1_DriverIRQHandler>
600038fa:	bd08      	pop	{r3, pc}

600038fc <ENET_IRQHandler>:
600038fc:	b508      	push	{r3, lr}
600038fe:	f7fe fd13 	bl	60002328 <ACMP1_DriverIRQHandler>
60003902:	bd08      	pop	{r3, pc}

60003904 <ENET_1588_Timer_IRQHandler>:
60003904:	b508      	push	{r3, lr}
60003906:	f7fe fd0f 	bl	60002328 <ACMP1_DriverIRQHandler>
6000390a:	bd08      	pop	{r3, pc}

6000390c <XBAR1_IRQ_0_1_IRQHandler>:
6000390c:	b508      	push	{r3, lr}
6000390e:	f7fe fd0b 	bl	60002328 <ACMP1_DriverIRQHandler>
60003912:	bd08      	pop	{r3, pc}

60003914 <XBAR1_IRQ_2_3_IRQHandler>:
60003914:	b508      	push	{r3, lr}
60003916:	f7fe fd07 	bl	60002328 <ACMP1_DriverIRQHandler>
6000391a:	bd08      	pop	{r3, pc}

6000391c <ADC_ETC_IRQ0_IRQHandler>:
6000391c:	b508      	push	{r3, lr}
6000391e:	f7fe fd03 	bl	60002328 <ACMP1_DriverIRQHandler>
60003922:	bd08      	pop	{r3, pc}

60003924 <ADC_ETC_IRQ1_IRQHandler>:
60003924:	b508      	push	{r3, lr}
60003926:	f7fe fcff 	bl	60002328 <ACMP1_DriverIRQHandler>
6000392a:	bd08      	pop	{r3, pc}

6000392c <ADC_ETC_IRQ2_IRQHandler>:
6000392c:	b508      	push	{r3, lr}
6000392e:	f7fe fcfb 	bl	60002328 <ACMP1_DriverIRQHandler>
60003932:	bd08      	pop	{r3, pc}

60003934 <ADC_ETC_ERROR_IRQ_IRQHandler>:
60003934:	b508      	push	{r3, lr}
60003936:	f7fe fcf7 	bl	60002328 <ACMP1_DriverIRQHandler>
6000393a:	bd08      	pop	{r3, pc}

6000393c <PIT_IRQHandler>:
6000393c:	b508      	push	{r3, lr}
6000393e:	f7fe fcf3 	bl	60002328 <ACMP1_DriverIRQHandler>
60003942:	bd08      	pop	{r3, pc}

60003944 <ACMP1_IRQHandler>:
60003944:	b508      	push	{r3, lr}
60003946:	f7fe fcef 	bl	60002328 <ACMP1_DriverIRQHandler>
6000394a:	bd08      	pop	{r3, pc}

6000394c <ACMP2_IRQHandler>:
6000394c:	b508      	push	{r3, lr}
6000394e:	f7fe fceb 	bl	60002328 <ACMP1_DriverIRQHandler>
60003952:	bd08      	pop	{r3, pc}

60003954 <ACMP3_IRQHandler>:
60003954:	b508      	push	{r3, lr}
60003956:	f7fe fce7 	bl	60002328 <ACMP1_DriverIRQHandler>
6000395a:	bd08      	pop	{r3, pc}

6000395c <ACMP4_IRQHandler>:
6000395c:	b508      	push	{r3, lr}
6000395e:	f7fe fce3 	bl	60002328 <ACMP1_DriverIRQHandler>
60003962:	bd08      	pop	{r3, pc}

60003964 <Reserved143_IRQHandler>:
60003964:	b508      	push	{r3, lr}
60003966:	f7fe fcdf 	bl	60002328 <ACMP1_DriverIRQHandler>
6000396a:	bd08      	pop	{r3, pc}

6000396c <Reserved144_IRQHandler>:
6000396c:	b508      	push	{r3, lr}
6000396e:	f7fe fcdb 	bl	60002328 <ACMP1_DriverIRQHandler>
60003972:	bd08      	pop	{r3, pc}

60003974 <ENC1_IRQHandler>:
60003974:	b508      	push	{r3, lr}
60003976:	f7fe fcd7 	bl	60002328 <ACMP1_DriverIRQHandler>
6000397a:	bd08      	pop	{r3, pc}

6000397c <ENC2_IRQHandler>:
6000397c:	b508      	push	{r3, lr}
6000397e:	f7fe fcd3 	bl	60002328 <ACMP1_DriverIRQHandler>
60003982:	bd08      	pop	{r3, pc}

60003984 <ENC3_IRQHandler>:
60003984:	b508      	push	{r3, lr}
60003986:	f7fe fccf 	bl	60002328 <ACMP1_DriverIRQHandler>
6000398a:	bd08      	pop	{r3, pc}

6000398c <ENC4_IRQHandler>:
6000398c:	b508      	push	{r3, lr}
6000398e:	f7fe fccb 	bl	60002328 <ACMP1_DriverIRQHandler>
60003992:	bd08      	pop	{r3, pc}

60003994 <TMR1_IRQHandler>:
60003994:	b508      	push	{r3, lr}
60003996:	f7fe fcc7 	bl	60002328 <ACMP1_DriverIRQHandler>
6000399a:	bd08      	pop	{r3, pc}

6000399c <TMR2_IRQHandler>:
6000399c:	b508      	push	{r3, lr}
6000399e:	f7fe fcc3 	bl	60002328 <ACMP1_DriverIRQHandler>
600039a2:	bd08      	pop	{r3, pc}

600039a4 <TMR3_IRQHandler>:
600039a4:	b508      	push	{r3, lr}
600039a6:	f7fe fcbf 	bl	60002328 <ACMP1_DriverIRQHandler>
600039aa:	bd08      	pop	{r3, pc}

600039ac <TMR4_IRQHandler>:
600039ac:	b508      	push	{r3, lr}
600039ae:	f7fe fcbb 	bl	60002328 <ACMP1_DriverIRQHandler>
600039b2:	bd08      	pop	{r3, pc}

600039b4 <PWM2_0_IRQHandler>:
600039b4:	b508      	push	{r3, lr}
600039b6:	f7fe fcb7 	bl	60002328 <ACMP1_DriverIRQHandler>
600039ba:	bd08      	pop	{r3, pc}

600039bc <PWM2_1_IRQHandler>:
600039bc:	b508      	push	{r3, lr}
600039be:	f7fe fcb3 	bl	60002328 <ACMP1_DriverIRQHandler>
600039c2:	bd08      	pop	{r3, pc}

600039c4 <PWM2_2_IRQHandler>:
600039c4:	b508      	push	{r3, lr}
600039c6:	f7fe fcaf 	bl	60002328 <ACMP1_DriverIRQHandler>
600039ca:	bd08      	pop	{r3, pc}

600039cc <PWM2_3_IRQHandler>:
600039cc:	b508      	push	{r3, lr}
600039ce:	f7fe fcab 	bl	60002328 <ACMP1_DriverIRQHandler>
600039d2:	bd08      	pop	{r3, pc}

600039d4 <PWM2_FAULT_IRQHandler>:
600039d4:	b508      	push	{r3, lr}
600039d6:	f7fe fca7 	bl	60002328 <ACMP1_DriverIRQHandler>
600039da:	bd08      	pop	{r3, pc}

600039dc <PWM3_0_IRQHandler>:
600039dc:	b508      	push	{r3, lr}
600039de:	f7fe fca3 	bl	60002328 <ACMP1_DriverIRQHandler>
600039e2:	bd08      	pop	{r3, pc}

600039e4 <PWM3_1_IRQHandler>:
600039e4:	b508      	push	{r3, lr}
600039e6:	f7fe fc9f 	bl	60002328 <ACMP1_DriverIRQHandler>
600039ea:	bd08      	pop	{r3, pc}

600039ec <PWM3_2_IRQHandler>:
600039ec:	b508      	push	{r3, lr}
600039ee:	f7fe fc9b 	bl	60002328 <ACMP1_DriverIRQHandler>
600039f2:	bd08      	pop	{r3, pc}

600039f4 <PWM3_3_IRQHandler>:
600039f4:	b508      	push	{r3, lr}
600039f6:	f7fe fc97 	bl	60002328 <ACMP1_DriverIRQHandler>
600039fa:	bd08      	pop	{r3, pc}

600039fc <PWM3_FAULT_IRQHandler>:
600039fc:	b508      	push	{r3, lr}
600039fe:	f7fe fc93 	bl	60002328 <ACMP1_DriverIRQHandler>
60003a02:	bd08      	pop	{r3, pc}

60003a04 <PWM4_0_IRQHandler>:
60003a04:	b508      	push	{r3, lr}
60003a06:	f7fe fc8f 	bl	60002328 <ACMP1_DriverIRQHandler>
60003a0a:	bd08      	pop	{r3, pc}

60003a0c <PWM4_1_IRQHandler>:
60003a0c:	b508      	push	{r3, lr}
60003a0e:	f7fe fc8b 	bl	60002328 <ACMP1_DriverIRQHandler>
60003a12:	bd08      	pop	{r3, pc}

60003a14 <PWM4_2_IRQHandler>:
60003a14:	b508      	push	{r3, lr}
60003a16:	f7fe fc87 	bl	60002328 <ACMP1_DriverIRQHandler>
60003a1a:	bd08      	pop	{r3, pc}

60003a1c <PWM4_3_IRQHandler>:
60003a1c:	b508      	push	{r3, lr}
60003a1e:	f7fe fc83 	bl	60002328 <ACMP1_DriverIRQHandler>
60003a22:	bd08      	pop	{r3, pc}

60003a24 <PWM4_FAULT_IRQHandler>:
60003a24:	b508      	push	{r3, lr}
60003a26:	f7fe fc7f 	bl	60002328 <ACMP1_DriverIRQHandler>
60003a2a:	bd08      	pop	{r3, pc}

60003a2c <main>:
60003a2c:	b510      	push	{r4, lr}
60003a2e:	ed2d 8b02 	vpush	{d8}
60003a32:	f001 f9a9 	bl	60004d88 <BOARD_InitBootPins>
60003a36:	ed9f 8a23 	vldr	s16, [pc, #140]	; 60003ac4 <main+0x98>
60003a3a:	f001 f9a1 	bl	60004d80 <BOARD_InitBootClocks>
60003a3e:	f001 f9a1 	bl	60004d84 <BOARD_InitBootPeripherals>
60003a42:	f000 fd81 	bl	60004548 <BOARD_InitDebugConsole>
60003a46:	f000 f873 	bl	60003b30 <init_timer>
60003a4a:	4b1f      	ldr	r3, [pc, #124]	; (60003ac8 <main+0x9c>)
60003a4c:	f44f 6244 	mov.w	r2, #3136	; 0xc40
60003a50:	491e      	ldr	r1, [pc, #120]	; (60003acc <main+0xa0>)
60003a52:	6818      	ldr	r0, [r3, #0]
60003a54:	f002 fe2d 	bl	600066b2 <memcpy>
60003a58:	f000 f888 	bl	60003b6c <get_time_in_us>
60003a5c:	4604      	mov	r4, r0
60003a5e:	4a1c      	ldr	r2, [pc, #112]	; (60003ad0 <main+0xa4>)
60003a60:	491c      	ldr	r1, [pc, #112]	; (60003ad4 <main+0xa8>)
60003a62:	481d      	ldr	r0, [pc, #116]	; (60003ad8 <main+0xac>)
60003a64:	f001 f9b2 	bl	60004dcc <lenet_mnist>
60003a68:	f000 f880 	bl	60003b6c <get_time_in_us>
60003a6c:	491b      	ldr	r1, [pc, #108]	; (60003adc <main+0xb0>)
60003a6e:	1b00      	subs	r0, r0, r4
60003a70:	4a1b      	ldr	r2, [pc, #108]	; (60003ae0 <main+0xb4>)
60003a72:	2300      	movs	r3, #0
60003a74:	fba1 0100 	umull	r0, r1, r1, r0
60003a78:	6812      	ldr	r2, [r2, #0]
60003a7a:	461c      	mov	r4, r3
60003a7c:	0989      	lsrs	r1, r1, #6
60003a7e:	ecf2 7a01 	vldmia	r2!, {s15}
60003a82:	eef4 7ac8 	vcmpe.f32	s15, s16
60003a86:	eef1 fa10 	vmrs	APSR_nzcv, fpscr
60003a8a:	dd02      	ble.n	60003a92 <main+0x66>
60003a8c:	eeb0 8a67 	vmov.f32	s16, s15
60003a90:	461c      	mov	r4, r3
60003a92:	3301      	adds	r3, #1
60003a94:	2b0a      	cmp	r3, #10
60003a96:	d1f2      	bne.n	60003a7e <main+0x52>
60003a98:	4812      	ldr	r0, [pc, #72]	; (60003ae4 <main+0xb8>)
60003a9a:	f7fe feff 	bl	6000289c <DbgConsole_Printf>
60003a9e:	eddf 7a12 	vldr	s15, [pc, #72]	; 60003ae8 <main+0xbc>
60003aa2:	4812      	ldr	r0, [pc, #72]	; (60003aec <main+0xc0>)
60003aa4:	ee28 8a27 	vmul.f32	s16, s16, s15
60003aa8:	eefd 7ac8 	vcvt.s32.f32	s15, s16
60003aac:	ee17 1a90 	vmov	r1, s15
60003ab0:	f7fe fef4 	bl	6000289c <DbgConsole_Printf>
60003ab4:	4621      	mov	r1, r4
60003ab6:	480e      	ldr	r0, [pc, #56]	; (60003af0 <main+0xc4>)
60003ab8:	f7fe fef0 	bl	6000289c <DbgConsole_Printf>
60003abc:	2000      	movs	r0, #0
60003abe:	ecbd 8b02 	vpop	{d8}
60003ac2:	bd10      	pop	{r4, pc}
60003ac4:	00000000 	.word	0x00000000
60003ac8:	80006a40 	.word	0x80006a40
60003acc:	80005e00 	.word	0x80005e00
60003ad0:	80006a80 	.word	0x80006a80
60003ad4:	8000e500 	.word	0x8000e500
60003ad8:	80000000 	.word	0x80000000
60003adc:	10624dd3 	.word	0x10624dd3
60003ae0:	80006a44 	.word	0x80006a44
60003ae4:	60006d20 	.word	0x60006d20
60003ae8:	447a0000 	.word	0x447a0000
60003aec:	60006d3c 	.word	0x60006d3c
60003af0:	60006d54 	.word	0x60006d54

60003af4 <HardFault_Handler>:
60003af4:	2004      	movs	r0, #4
60003af6:	4671      	mov	r1, lr
60003af8:	4208      	tst	r0, r1
60003afa:	d002      	beq.n	60003b02 <_MSP>
60003afc:	f3ef 8009 	mrs	r0, PSP
60003b00:	e001      	b.n	60003b06 <_process>

60003b02 <_MSP>:
60003b02:	f3ef 8008 	mrs	r0, MSP

60003b06 <_process>:
60003b06:	6981      	ldr	r1, [r0, #24]
60003b08:	880a      	ldrh	r2, [r1, #0]
60003b0a:	f64b 63ab 	movw	r3, #48811	; 0xbeab
60003b0e:	429a      	cmp	r2, r3
60003b10:	d000      	beq.n	60003b14 <_semihost_return>
60003b12:	e7fe      	b.n	60003b12 <_process+0xc>

60003b14 <_semihost_return>:
60003b14:	3102      	adds	r1, #2
60003b16:	6181      	str	r1, [r0, #24]
60003b18:	2120      	movs	r1, #32
60003b1a:	6001      	str	r1, [r0, #0]
60003b1c:	4770      	bx	lr
60003b1e:	bf00      	nop

60003b20 <SysTick_Handler>:
60003b20:	4a02      	ldr	r2, [pc, #8]	; (60003b2c <SysTick_Handler+0xc>)
60003b22:	6813      	ldr	r3, [r2, #0]
60003b24:	3301      	adds	r3, #1
60003b26:	6013      	str	r3, [r2, #0]
60003b28:	4770      	bx	lr
60003b2a:	bf00      	nop
60003b2c:	8000f194 	.word	0x8000f194

60003b30 <init_timer>:
60003b30:	4b0b      	ldr	r3, [pc, #44]	; (60003b60 <init_timer+0x30>)
60003b32:	4a0c      	ldr	r2, [pc, #48]	; (60003b64 <init_timer+0x34>)
60003b34:	681b      	ldr	r3, [r3, #0]
60003b36:	fba2 2303 	umull	r2, r3, r2, r3
60003b3a:	099b      	lsrs	r3, r3, #6
60003b3c:	3b01      	subs	r3, #1
60003b3e:	f1b3 7f80 	cmp.w	r3, #16777216	; 0x1000000
60003b42:	d20b      	bcs.n	60003b5c <init_timer+0x2c>
60003b44:	f04f 22e0 	mov.w	r2, #3758153728	; 0xe000e000
60003b48:	4807      	ldr	r0, [pc, #28]	; (60003b68 <init_timer+0x38>)
60003b4a:	f04f 0cf0 	mov.w	ip, #240	; 0xf0
60003b4e:	2100      	movs	r1, #0
60003b50:	6153      	str	r3, [r2, #20]
60003b52:	2307      	movs	r3, #7
60003b54:	f880 c023 	strb.w	ip, [r0, #35]	; 0x23
60003b58:	6191      	str	r1, [r2, #24]
60003b5a:	6113      	str	r3, [r2, #16]
60003b5c:	4770      	bx	lr
60003b5e:	bf00      	nop
60003b60:	80006a48 	.word	0x80006a48
60003b64:	10624dd3 	.word	0x10624dd3
60003b68:	e000ed00 	.word	0xe000ed00

60003b6c <get_time_in_us>:
60003b6c:	480c      	ldr	r0, [pc, #48]	; (60003ba0 <get_time_in_us+0x34>)
60003b6e:	f04f 22e0 	mov.w	r2, #3758153728	; 0xe000e000
60003b72:	490c      	ldr	r1, [pc, #48]	; (60003ba4 <get_time_in_us+0x38>)
60003b74:	4b0c      	ldr	r3, [pc, #48]	; (60003ba8 <get_time_in_us+0x3c>)
60003b76:	b410      	push	{r4}
60003b78:	6800      	ldr	r0, [r0, #0]
60003b7a:	6992      	ldr	r2, [r2, #24]
60003b7c:	fba1 c100 	umull	ip, r1, r1, r0
60003b80:	4c0a      	ldr	r4, [pc, #40]	; (60003bac <get_time_in_us+0x40>)
60003b82:	fba3 0300 	umull	r0, r3, r3, r0
60003b86:	ebc2 1291 	rsb	r2, r2, r1, lsr #6
60003b8a:	6820      	ldr	r0, [r4, #0]
60003b8c:	0c9b      	lsrs	r3, r3, #18
60003b8e:	f85d 4b04 	ldr.w	r4, [sp], #4
60003b92:	fbb2 f3f3 	udiv	r3, r2, r3
60003b96:	f44f 727a 	mov.w	r2, #1000	; 0x3e8
60003b9a:	fb02 3000 	mla	r0, r2, r0, r3
60003b9e:	4770      	bx	lr
60003ba0:	80006a48 	.word	0x80006a48
60003ba4:	10624dd3 	.word	0x10624dd3
60003ba8:	431bde83 	.word	0x431bde83
60003bac:	8000f194 	.word	0x8000f194

60003bb0 <CLOCK_InitExternalClk>:
60003bb0:	4a0b      	ldr	r2, [pc, #44]	; (60003be0 <CLOCK_InitExternalClk+0x30>)
60003bb2:	f04f 4380 	mov.w	r3, #1073741824	; 0x40000000
60003bb6:	f8c2 3158 	str.w	r3, [r2, #344]	; 0x158
60003bba:	f8d2 3270 	ldr.w	r3, [r2, #624]	; 0x270
60003bbe:	03d9      	lsls	r1, r3, #15
60003bc0:	d5fb      	bpl.n	60003bba <CLOCK_InitExternalClk+0xa>
60003bc2:	f44f 3380 	mov.w	r3, #65536	; 0x10000
60003bc6:	4906      	ldr	r1, [pc, #24]	; (60003be0 <CLOCK_InitExternalClk+0x30>)
60003bc8:	f8c2 3154 	str.w	r3, [r2, #340]	; 0x154
60003bcc:	f8d1 3150 	ldr.w	r3, [r1, #336]	; 0x150
60003bd0:	041b      	lsls	r3, r3, #16
60003bd2:	d5fb      	bpl.n	60003bcc <CLOCK_InitExternalClk+0x1c>
60003bd4:	f44f 3380 	mov.w	r3, #65536	; 0x10000
60003bd8:	f8c1 3158 	str.w	r3, [r1, #344]	; 0x158
60003bdc:	4770      	bx	lr
60003bde:	bf00      	nop
60003be0:	400d8000 	.word	0x400d8000

60003be4 <CLOCK_SwitchOsc>:
60003be4:	4b04      	ldr	r3, [pc, #16]	; (60003bf8 <CLOCK_SwitchOsc+0x14>)
60003be6:	2210      	movs	r2, #16
60003be8:	b910      	cbnz	r0, 60003bf0 <CLOCK_SwitchOsc+0xc>
60003bea:	f8c3 2274 	str.w	r2, [r3, #628]	; 0x274
60003bee:	4770      	bx	lr
60003bf0:	f8c3 2278 	str.w	r2, [r3, #632]	; 0x278
60003bf4:	4770      	bx	lr
60003bf6:	bf00      	nop
60003bf8:	400d8000 	.word	0x400d8000

60003bfc <CLOCK_InitRcOsc24M>:
60003bfc:	4a03      	ldr	r2, [pc, #12]	; (60003c0c <CLOCK_InitRcOsc24M+0x10>)
60003bfe:	f8d2 3270 	ldr.w	r3, [r2, #624]	; 0x270
60003c02:	f043 0301 	orr.w	r3, r3, #1
60003c06:	f8c2 3270 	str.w	r3, [r2, #624]	; 0x270
60003c0a:	4770      	bx	lr
60003c0c:	400d8000 	.word	0x400d8000

60003c10 <CLOCK_InitArmPll>:
60003c10:	4a10      	ldr	r2, [pc, #64]	; (60003c54 <CLOCK_InitArmPll+0x44>)
60003c12:	7903      	ldrb	r3, [r0, #4]
60003c14:	4910      	ldr	r1, [pc, #64]	; (60003c58 <CLOCK_InitArmPll+0x48>)
60003c16:	039b      	lsls	r3, r3, #14
60003c18:	b410      	push	{r4}
60003c1a:	6814      	ldr	r4, [r2, #0]
60003c1c:	b29b      	uxth	r3, r3
60003c1e:	f424 3ce0 	bic.w	ip, r4, #114688	; 0x1c000
60003c22:	ea43 030c 	orr.w	r3, r3, ip
60003c26:	f443 3380 	orr.w	r3, r3, #65536	; 0x10000
60003c2a:	6013      	str	r3, [r2, #0]
60003c2c:	6814      	ldr	r4, [r2, #0]
60003c2e:	6803      	ldr	r3, [r0, #0]
60003c30:	4021      	ands	r1, r4
60003c32:	f003 037f 	and.w	r3, r3, #127	; 0x7f
60003c36:	430b      	orrs	r3, r1
60003c38:	f443 5300 	orr.w	r3, r3, #8192	; 0x2000
60003c3c:	6013      	str	r3, [r2, #0]
60003c3e:	6813      	ldr	r3, [r2, #0]
60003c40:	2b00      	cmp	r3, #0
60003c42:	dafc      	bge.n	60003c3e <CLOCK_InitArmPll+0x2e>
60003c44:	6813      	ldr	r3, [r2, #0]
60003c46:	f423 3380 	bic.w	r3, r3, #65536	; 0x10000
60003c4a:	6013      	str	r3, [r2, #0]
60003c4c:	f85d 4b04 	ldr.w	r4, [sp], #4
60003c50:	4770      	bx	lr
60003c52:	bf00      	nop
60003c54:	400d8000 	.word	0x400d8000
60003c58:	ffffcf80 	.word	0xffffcf80

60003c5c <CLOCK_DeinitUsb2Pll>:
60003c5c:	4b01      	ldr	r3, [pc, #4]	; (60003c64 <CLOCK_DeinitUsb2Pll+0x8>)
60003c5e:	2200      	movs	r2, #0
60003c60:	621a      	str	r2, [r3, #32]
60003c62:	4770      	bx	lr
60003c64:	400d8000 	.word	0x400d8000

60003c68 <CLOCK_DeinitAudioPll>:
60003c68:	4b02      	ldr	r3, [pc, #8]	; (60003c74 <CLOCK_DeinitAudioPll+0xc>)
60003c6a:	f44f 5280 	mov.w	r2, #4096	; 0x1000
60003c6e:	671a      	str	r2, [r3, #112]	; 0x70
60003c70:	4770      	bx	lr
60003c72:	bf00      	nop
60003c74:	400d8000 	.word	0x400d8000

60003c78 <CLOCK_DeinitEnetPll>:
60003c78:	4b02      	ldr	r3, [pc, #8]	; (60003c84 <CLOCK_DeinitEnetPll+0xc>)
60003c7a:	f44f 5280 	mov.w	r2, #4096	; 0x1000
60003c7e:	f8c3 20e0 	str.w	r2, [r3, #224]	; 0xe0
60003c82:	4770      	bx	lr
60003c84:	400d8000 	.word	0x400d8000

60003c88 <CLOCK_GetPllFreq>:
60003c88:	f3c0 4c0b 	ubfx	ip, r0, #16, #12
60003c8c:	4974      	ldr	r1, [pc, #464]	; (60003e60 <CLOCK_GetPllFreq+0x1d8>)
60003c8e:	4602      	mov	r2, r0
60003c90:	f000 001f 	and.w	r0, r0, #31
60003c94:	f85c 3001 	ldr.w	r3, [ip, r1]
60003c98:	40c3      	lsrs	r3, r0
60003c9a:	f013 0301 	ands.w	r3, r3, #1
60003c9e:	d101      	bne.n	60003ca4 <CLOCK_GetPllFreq+0x1c>
60003ca0:	4618      	mov	r0, r3
60003ca2:	4770      	bx	lr
60003ca4:	f85c 3001 	ldr.w	r3, [ip, r1]
60003ca8:	f413 4f40 	tst.w	r3, #49152	; 0xc000
60003cac:	d106      	bne.n	60003cbc <CLOCK_GetPllFreq+0x34>
60003cae:	f8d1 3270 	ldr.w	r3, [r1, #624]	; 0x270
60003cb2:	06d8      	lsls	r0, r3, #27
60003cb4:	d47f      	bmi.n	60003db6 <CLOCK_GetPllFreq+0x12e>
60003cb6:	4b6b      	ldr	r3, [pc, #428]	; (60003e64 <CLOCK_GetPllFreq+0x1dc>)
60003cb8:	6818      	ldr	r0, [r3, #0]
60003cba:	e000      	b.n	60003cbe <CLOCK_GetPllFreq+0x36>
60003cbc:	2000      	movs	r0, #0
60003cbe:	f85c 3001 	ldr.w	r3, [ip, r1]
60003cc2:	f413 3380 	ands.w	r3, r3, #65536	; 0x10000
60003cc6:	d141      	bne.n	60003d4c <CLOCK_GetPllFreq+0xc4>
60003cc8:	4967      	ldr	r1, [pc, #412]	; (60003e68 <CLOCK_GetPllFreq+0x1e0>)
60003cca:	428a      	cmp	r2, r1
60003ccc:	f000 8083 	beq.w	60003dd6 <CLOCK_GetPllFreq+0x14e>
60003cd0:	d835      	bhi.n	60003d3e <CLOCK_GetPllFreq+0xb6>
60003cd2:	f5a1 01a0 	sub.w	r1, r1, #5242880	; 0x500000
60003cd6:	428a      	cmp	r2, r1
60003cd8:	f000 80aa 	beq.w	60003e30 <CLOCK_GetPllFreq+0x1a8>
60003cdc:	d91f      	bls.n	60003d1e <CLOCK_GetPllFreq+0x96>
60003cde:	4963      	ldr	r1, [pc, #396]	; (60003e6c <CLOCK_GetPllFreq+0x1e4>)
60003ce0:	428a      	cmp	r2, r1
60003ce2:	d1dd      	bne.n	60003ca0 <CLOCK_GetPllFreq+0x18>
60003ce4:	4b5e      	ldr	r3, [pc, #376]	; (60003e60 <CLOCK_GetPllFreq+0x1d8>)
60003ce6:	ee07 0a90 	vmov	s15, r0
60003cea:	ed93 6a14 	vldr	s12, [r3, #80]	; 0x50
60003cee:	eeb8 7b67 	vcvt.f64.u32	d7, s15
60003cf2:	ed93 5a18 	vldr	s10, [r3, #96]	; 0x60
60003cf6:	eeb8 6b46 	vcvt.f64.u32	d6, s12
60003cfa:	6b1b      	ldr	r3, [r3, #48]	; 0x30
60003cfc:	eeb8 5b45 	vcvt.f64.u32	d5, s10
60003d00:	07db      	lsls	r3, r3, #31
60003d02:	ee27 7b06 	vmul.f64	d7, d7, d6
60003d06:	ee87 6b05 	vdiv.f64	d6, d7, d5
60003d0a:	d55e      	bpl.n	60003dca <CLOCK_GetPllFreq+0x142>
60003d0c:	2316      	movs	r3, #22
60003d0e:	fb00 f303 	mul.w	r3, r0, r3
60003d12:	eefc 7bc6 	vcvt.u32.f64	s15, d6
60003d16:	ee17 0a90 	vmov	r0, s15
60003d1a:	4418      	add	r0, r3
60003d1c:	4770      	bx	lr
60003d1e:	2a0d      	cmp	r2, #13
60003d20:	d04b      	beq.n	60003dba <CLOCK_GetPllFreq+0x132>
60003d22:	f5a1 1180 	sub.w	r1, r1, #1048576	; 0x100000
60003d26:	428a      	cmp	r2, r1
60003d28:	d1ba      	bne.n	60003ca0 <CLOCK_GetPllFreq+0x18>
60003d2a:	4b4d      	ldr	r3, [pc, #308]	; (60003e60 <CLOCK_GetPllFreq+0x1d8>)
60003d2c:	691b      	ldr	r3, [r3, #16]
60003d2e:	f013 0f02 	tst.w	r3, #2
60003d32:	bf14      	ite	ne
60003d34:	2316      	movne	r3, #22
60003d36:	2314      	moveq	r3, #20
60003d38:	fb03 f000 	mul.w	r0, r3, r0
60003d3c:	4770      	bx	lr
60003d3e:	494c      	ldr	r1, [pc, #304]	; (60003e70 <CLOCK_GetPllFreq+0x1e8>)
60003d40:	428a      	cmp	r2, r1
60003d42:	d07f      	beq.n	60003e44 <CLOCK_GetPllFreq+0x1bc>
60003d44:	3108      	adds	r1, #8
60003d46:	428a      	cmp	r2, r1
60003d48:	d101      	bne.n	60003d4e <CLOCK_GetPllFreq+0xc6>
60003d4a:	484a      	ldr	r0, [pc, #296]	; (60003e74 <CLOCK_GetPllFreq+0x1ec>)
60003d4c:	4770      	bx	lr
60003d4e:	494a      	ldr	r1, [pc, #296]	; (60003e78 <CLOCK_GetPllFreq+0x1f0>)
60003d50:	428a      	cmp	r2, r1
60003d52:	d1a5      	bne.n	60003ca0 <CLOCK_GetPllFreq+0x18>
60003d54:	4b42      	ldr	r3, [pc, #264]	; (60003e60 <CLOCK_GetPllFreq+0x1d8>)
60003d56:	ee07 0a90 	vmov	s15, r0
60003d5a:	f8d3 20a0 	ldr.w	r2, [r3, #160]	; 0xa0
60003d5e:	eeb8 7b67 	vcvt.f64.u32	d7, s15
60003d62:	ed93 5a2c 	vldr	s10, [r3, #176]	; 0xb0
60003d66:	ed93 6a30 	vldr	s12, [r3, #192]	; 0xc0
60003d6a:	f002 027f 	and.w	r2, r2, #127	; 0x7f
60003d6e:	eeb8 5b45 	vcvt.f64.u32	d5, s10
60003d72:	f8d3 30a0 	ldr.w	r3, [r3, #160]	; 0xa0
60003d76:	eeb8 6b46 	vcvt.f64.u32	d6, s12
60003d7a:	f413 13c0 	ands.w	r3, r3, #1572864	; 0x180000
60003d7e:	ee27 5b05 	vmul.f64	d5, d7, d5
60003d82:	ee85 7b06 	vdiv.f64	d7, d5, d6
60003d86:	eebc 7bc7 	vcvt.u32.f64	s14, d7
60003d8a:	ee17 1a10 	vmov	r1, s14
60003d8e:	fb00 1002 	mla	r0, r0, r2, r1
60003d92:	d01e      	beq.n	60003dd2 <CLOCK_GetPllFreq+0x14a>
60003d94:	f5b3 2f00 	cmp.w	r3, #524288	; 0x80000
60003d98:	d100      	bne.n	60003d9c <CLOCK_GetPllFreq+0x114>
60003d9a:	0840      	lsrs	r0, r0, #1
60003d9c:	4b30      	ldr	r3, [pc, #192]	; (60003e60 <CLOCK_GetPllFreq+0x1d8>)
60003d9e:	f8d3 3170 	ldr.w	r3, [r3, #368]	; 0x170
60003da2:	f003 4340 	and.w	r3, r3, #3221225472	; 0xc0000000
60003da6:	f1b3 4f80 	cmp.w	r3, #1073741824	; 0x40000000
60003daa:	d054      	beq.n	60003e56 <CLOCK_GetPllFreq+0x1ce>
60003dac:	f1b3 4f40 	cmp.w	r3, #3221225472	; 0xc0000000
60003db0:	d1cc      	bne.n	60003d4c <CLOCK_GetPllFreq+0xc4>
60003db2:	0880      	lsrs	r0, r0, #2
60003db4:	4770      	bx	lr
60003db6:	4831      	ldr	r0, [pc, #196]	; (60003e7c <CLOCK_GetPllFreq+0x1f4>)
60003db8:	e781      	b.n	60003cbe <CLOCK_GetPllFreq+0x36>
60003dba:	4b29      	ldr	r3, [pc, #164]	; (60003e60 <CLOCK_GetPllFreq+0x1d8>)
60003dbc:	681b      	ldr	r3, [r3, #0]
60003dbe:	f003 037f 	and.w	r3, r3, #127	; 0x7f
60003dc2:	fb03 f000 	mul.w	r0, r3, r0
60003dc6:	0840      	lsrs	r0, r0, #1
60003dc8:	4770      	bx	lr
60003dca:	eb00 0080 	add.w	r0, r0, r0, lsl #2
60003dce:	0083      	lsls	r3, r0, #2
60003dd0:	e79f      	b.n	60003d12 <CLOCK_GetPllFreq+0x8a>
60003dd2:	0880      	lsrs	r0, r0, #2
60003dd4:	e7e2      	b.n	60003d9c <CLOCK_GetPllFreq+0x114>
60003dd6:	4b22      	ldr	r3, [pc, #136]	; (60003e60 <CLOCK_GetPllFreq+0x1d8>)
60003dd8:	ee07 0a90 	vmov	s15, r0
60003ddc:	6f1a      	ldr	r2, [r3, #112]	; 0x70
60003dde:	eeb8 7b67 	vcvt.f64.u32	d7, s15
60003de2:	ed93 5a20 	vldr	s10, [r3, #128]	; 0x80
60003de6:	ed93 6a24 	vldr	s12, [r3, #144]	; 0x90
60003dea:	f002 027f 	and.w	r2, r2, #127	; 0x7f
60003dee:	eeb8 5b45 	vcvt.f64.u32	d5, s10
60003df2:	6f1b      	ldr	r3, [r3, #112]	; 0x70
60003df4:	eeb8 6b46 	vcvt.f64.u32	d6, s12
60003df8:	f413 13c0 	ands.w	r3, r3, #1572864	; 0x180000
60003dfc:	ee27 5b05 	vmul.f64	d5, d7, d5
60003e00:	ee85 7b06 	vdiv.f64	d7, d5, d6
60003e04:	eebc 7bc7 	vcvt.u32.f64	s14, d7
60003e08:	ee17 1a10 	vmov	r1, s14
60003e0c:	fb00 1002 	mla	r0, r0, r2, r1
60003e10:	d023      	beq.n	60003e5a <CLOCK_GetPllFreq+0x1d2>
60003e12:	f5b3 2f00 	cmp.w	r3, #524288	; 0x80000
60003e16:	d100      	bne.n	60003e1a <CLOCK_GetPllFreq+0x192>
60003e18:	0840      	lsrs	r0, r0, #1
60003e1a:	4b11      	ldr	r3, [pc, #68]	; (60003e60 <CLOCK_GetPllFreq+0x1d8>)
60003e1c:	4a18      	ldr	r2, [pc, #96]	; (60003e80 <CLOCK_GetPllFreq+0x1f8>)
60003e1e:	f8d3 3170 	ldr.w	r3, [r3, #368]	; 0x170
60003e22:	4013      	ands	r3, r2
60003e24:	f5b3 4f00 	cmp.w	r3, #32768	; 0x8000
60003e28:	d015      	beq.n	60003e56 <CLOCK_GetPllFreq+0x1ce>
60003e2a:	4293      	cmp	r3, r2
60003e2c:	d18e      	bne.n	60003d4c <CLOCK_GetPllFreq+0xc4>
60003e2e:	e7c0      	b.n	60003db2 <CLOCK_GetPllFreq+0x12a>
60003e30:	4b0b      	ldr	r3, [pc, #44]	; (60003e60 <CLOCK_GetPllFreq+0x1d8>)
60003e32:	6a1b      	ldr	r3, [r3, #32]
60003e34:	f013 0f02 	tst.w	r3, #2
60003e38:	bf14      	ite	ne
60003e3a:	2316      	movne	r3, #22
60003e3c:	2314      	moveq	r3, #20
60003e3e:	fb03 f000 	mul.w	r0, r3, r0
60003e42:	4770      	bx	lr
60003e44:	4b06      	ldr	r3, [pc, #24]	; (60003e60 <CLOCK_GetPllFreq+0x1d8>)
60003e46:	4a0f      	ldr	r2, [pc, #60]	; (60003e84 <CLOCK_GetPllFreq+0x1fc>)
60003e48:	f8d3 30e0 	ldr.w	r3, [r3, #224]	; 0xe0
60003e4c:	f003 0303 	and.w	r3, r3, #3
60003e50:	f852 0023 	ldr.w	r0, [r2, r3, lsl #2]
60003e54:	4770      	bx	lr
60003e56:	0840      	lsrs	r0, r0, #1
60003e58:	4770      	bx	lr
60003e5a:	0880      	lsrs	r0, r0, #2
60003e5c:	e7dd      	b.n	60003e1a <CLOCK_GetPllFreq+0x192>
60003e5e:	bf00      	nop
60003e60:	400d8000 	.word	0x400d8000
60003e64:	8000f19c 	.word	0x8000f19c
60003e68:	0070000d 	.word	0x0070000d
60003e6c:	0030000d 	.word	0x0030000d
60003e70:	00e0000d 	.word	0x00e0000d
60003e74:	017d7840 	.word	0x017d7840
60003e78:	00a0000d 	.word	0x00a0000d
60003e7c:	016e3600 	.word	0x016e3600
60003e80:	00808000 	.word	0x00808000
60003e84:	60006d68 	.word	0x60006d68

60003e88 <LPUART_Init>:
60003e88:	e92d 4ff0 	stmdb	sp!, {r4, r5, r6, r7, r8, r9, sl, fp, lr}
60003e8c:	4682      	mov	sl, r0
60003e8e:	680c      	ldr	r4, [r1, #0]
60003e90:	eb02 0882 	add.w	r8, r2, r2, lsl #2
60003e94:	2000      	movs	r0, #0
60003e96:	b083      	sub	sp, #12
60003e98:	ea4f 0e84 	mov.w	lr, r4, lsl #2
60003e9c:	ea4f 0848 	mov.w	r8, r8, lsl #1
60003ea0:	4626      	mov	r6, r4
60003ea2:	f04f 0c04 	mov.w	ip, #4
60003ea6:	4683      	mov	fp, r0
60003ea8:	f8df 9204 	ldr.w	r9, [pc, #516]	; 600040b0 <LPUART_Init+0x228>
60003eac:	9101      	str	r1, [sp, #4]
60003eae:	fa5f f18c 	uxtb.w	r1, ip
60003eb2:	fbb8 f3fe 	udiv	r3, r8, lr
60003eb6:	3305      	adds	r3, #5
60003eb8:	44a6      	add	lr, r4
60003eba:	fba9 5303 	umull	r5, r3, r9, r3
60003ebe:	f3c3 03cf 	ubfx	r3, r3, #3, #16
60003ec2:	2b01      	cmp	r3, #1
60003ec4:	bf38      	it	cc
60003ec6:	2301      	movcc	r3, #1
60003ec8:	fb0c f503 	mul.w	r5, ip, r3
60003ecc:	f10c 0c01 	add.w	ip, ip, #1
60003ed0:	fbb2 f5f5 	udiv	r5, r2, r5
60003ed4:	42ac      	cmp	r4, r5
60003ed6:	eba4 0705 	sub.w	r7, r4, r5
60003eda:	bf38      	it	cc
60003edc:	1b2f      	subcc	r7, r5, r4
60003ede:	42b7      	cmp	r7, r6
60003ee0:	d802      	bhi.n	60003ee8 <LPUART_Init+0x60>
60003ee2:	463e      	mov	r6, r7
60003ee4:	4608      	mov	r0, r1
60003ee6:	469b      	mov	fp, r3
60003ee8:	f1bc 0f21 	cmp.w	ip, #33	; 0x21
60003eec:	d1df      	bne.n	60003eae <LPUART_Init+0x26>
60003eee:	4b68      	ldr	r3, [pc, #416]	; (60004090 <LPUART_Init+0x208>)
60003ef0:	fba3 3404 	umull	r3, r4, r3, r4
60003ef4:	0964      	lsrs	r4, r4, #5
60003ef6:	eb04 0444 	add.w	r4, r4, r4, lsl #1
60003efa:	42b4      	cmp	r4, r6
60003efc:	f0c0 80af 	bcc.w	6000405e <LPUART_Init+0x1d6>
60003f00:	2200      	movs	r2, #0
60003f02:	4964      	ldr	r1, [pc, #400]	; (60004094 <LPUART_Init+0x20c>)
60003f04:	4613      	mov	r3, r2
60003f06:	e001      	b.n	60003f0c <LPUART_Init+0x84>
60003f08:	f851 2f04 	ldr.w	r2, [r1, #4]!
60003f0c:	4592      	cmp	sl, r2
60003f0e:	f000 80af 	beq.w	60004070 <LPUART_Init+0x1e8>
60003f12:	3301      	adds	r3, #1
60003f14:	2b09      	cmp	r3, #9
60003f16:	d1f7      	bne.n	60003f08 <LPUART_Init+0x80>
60003f18:	2403      	movs	r4, #3
60003f1a:	4a5f      	ldr	r2, [pc, #380]	; (60004098 <LPUART_Init+0x210>)
60003f1c:	e852 3f00 	ldrex	r3, [r2]
60003f20:	4323      	orrs	r3, r4
60003f22:	e842 3100 	strex	r1, r3, [r2]
60003f26:	2900      	cmp	r1, #0
60003f28:	d1f8      	bne.n	60003f1c <LPUART_Init+0x94>
60003f2a:	f8da 3008 	ldr.w	r3, [sl, #8]
60003f2e:	f3cb 0b0c 	ubfx	fp, fp, #0, #13
60003f32:	4a5a      	ldr	r2, [pc, #360]	; (6000409c <LPUART_Init+0x214>)
60003f34:	f043 0302 	orr.w	r3, r3, #2
60003f38:	9c01      	ldr	r4, [sp, #4]
60003f3a:	f8ca 3008 	str.w	r3, [sl, #8]
60003f3e:	f8da 3008 	ldr.w	r3, [sl, #8]
60003f42:	f023 0302 	bic.w	r3, r3, #2
60003f46:	f8ca 3008 	str.w	r3, [sl, #8]
60003f4a:	1f03      	subs	r3, r0, #4
60003f4c:	f8da 1010 	ldr.w	r1, [sl, #16]
60003f50:	2b03      	cmp	r3, #3
60003f52:	f100 33ff 	add.w	r3, r0, #4294967295	; 0xffffffff
60003f56:	bf98      	it	ls
60003f58:	f441 3100 	orrls.w	r1, r1, #131072	; 0x20000
60003f5c:	061b      	lsls	r3, r3, #24
60003f5e:	400a      	ands	r2, r1
60003f60:	f003 53f8 	and.w	r3, r3, #520093696	; 0x1f000000
60003f64:	4313      	orrs	r3, r2
60003f66:	4a4e      	ldr	r2, [pc, #312]	; (600040a0 <LPUART_Init+0x218>)
60003f68:	ea4b 0303 	orr.w	r3, fp, r3
60003f6c:	f8ca 3010 	str.w	r3, [sl, #16]
60003f70:	f8da 3010 	ldr.w	r3, [sl, #16]
60003f74:	f023 5300 	bic.w	r3, r3, #536870912	; 0x20000000
60003f78:	f8ca 3010 	str.w	r3, [sl, #16]
60003f7c:	f8da 0018 	ldr.w	r0, [sl, #24]
60003f80:	7be3      	ldrb	r3, [r4, #15]
60003f82:	7921      	ldrb	r1, [r4, #4]
60003f84:	4002      	ands	r2, r0
60003f86:	021b      	lsls	r3, r3, #8
60003f88:	430a      	orrs	r2, r1
60003f8a:	f403 63e0 	and.w	r3, r3, #1792	; 0x700
60003f8e:	431a      	orrs	r2, r3
60003f90:	7ba3      	ldrb	r3, [r4, #14]
60003f92:	009b      	lsls	r3, r3, #2
60003f94:	f003 0304 	and.w	r3, r3, #4
60003f98:	4313      	orrs	r3, r2
60003f9a:	7962      	ldrb	r2, [r4, #5]
60003f9c:	2a01      	cmp	r2, #1
60003f9e:	d063      	beq.n	60004068 <LPUART_Init+0x1e0>
60003fa0:	b109      	cbz	r1, 60003fa6 <LPUART_Init+0x11e>
60003fa2:	f043 0310 	orr.w	r3, r3, #16
60003fa6:	9801      	ldr	r0, [sp, #4]
60003fa8:	f8ca 3018 	str.w	r3, [sl, #24]
60003fac:	79c3      	ldrb	r3, [r0, #7]
60003fae:	f8da 2010 	ldr.w	r2, [sl, #16]
60003fb2:	035b      	lsls	r3, r3, #13
60003fb4:	f422 5200 	bic.w	r2, r2, #8192	; 0x2000
60003fb8:	f403 5300 	and.w	r3, r3, #8192	; 0x2000
60003fbc:	4313      	orrs	r3, r2
60003fbe:	f8ca 3010 	str.w	r3, [sl, #16]
60003fc2:	7a42      	ldrb	r2, [r0, #9]
60003fc4:	7a03      	ldrb	r3, [r0, #8]
60003fc6:	ea43 4302 	orr.w	r3, r3, r2, lsl #16
60003fca:	f8ca 302c 	str.w	r3, [sl, #44]	; 0x2c
60003fce:	f8da 3028 	ldr.w	r3, [sl, #40]	; 0x28
60003fd2:	f043 0388 	orr.w	r3, r3, #136	; 0x88
60003fd6:	f8ca 3028 	str.w	r3, [sl, #40]	; 0x28
60003fda:	f8da 3028 	ldr.w	r3, [sl, #40]	; 0x28
60003fde:	f443 4340 	orr.w	r3, r3, #49152	; 0xc000
60003fe2:	f8ca 3028 	str.w	r3, [sl, #40]	; 0x28
60003fe6:	7b43      	ldrb	r3, [r0, #13]
60003fe8:	7b02      	ldrb	r2, [r0, #12]
60003fea:	011b      	lsls	r3, r3, #4
60003fec:	f8da 1024 	ldr.w	r1, [sl, #36]	; 0x24
60003ff0:	0152      	lsls	r2, r2, #5
60003ff2:	f003 0310 	and.w	r3, r3, #16
60003ff6:	f002 0220 	and.w	r2, r2, #32
60003ffa:	4313      	orrs	r3, r2
60003ffc:	430b      	orrs	r3, r1
60003ffe:	f8ca 3024 	str.w	r3, [sl, #36]	; 0x24
60004002:	7a83      	ldrb	r3, [r0, #10]
60004004:	b12b      	cbz	r3, 60004012 <LPUART_Init+0x18a>
60004006:	f8da 3024 	ldr.w	r3, [sl, #36]	; 0x24
6000400a:	f043 0308 	orr.w	r3, r3, #8
6000400e:	f8ca 3024 	str.w	r3, [sl, #36]	; 0x24
60004012:	9b01      	ldr	r3, [sp, #4]
60004014:	7adb      	ldrb	r3, [r3, #11]
60004016:	b12b      	cbz	r3, 60004024 <LPUART_Init+0x19c>
60004018:	f8da 3024 	ldr.w	r3, [sl, #36]	; 0x24
6000401c:	f043 0301 	orr.w	r3, r3, #1
60004020:	f8ca 3024 	str.w	r3, [sl, #36]	; 0x24
60004024:	9801      	ldr	r0, [sp, #4]
60004026:	4b1f      	ldr	r3, [pc, #124]	; (600040a4 <LPUART_Init+0x21c>)
60004028:	7981      	ldrb	r1, [r0, #6]
6000402a:	4a1f      	ldr	r2, [pc, #124]	; (600040a8 <LPUART_Init+0x220>)
6000402c:	2900      	cmp	r1, #0
6000402e:	bf18      	it	ne
60004030:	461a      	movne	r2, r3
60004032:	f8da 3014 	ldr.w	r3, [sl, #20]
60004036:	4313      	orrs	r3, r2
60004038:	f8ca 3014 	str.w	r3, [sl, #20]
6000403c:	7c02      	ldrb	r2, [r0, #16]
6000403e:	f8da 3018 	ldr.w	r3, [sl, #24]
60004042:	b10a      	cbz	r2, 60004048 <LPUART_Init+0x1c0>
60004044:	f443 2300 	orr.w	r3, r3, #524288	; 0x80000
60004048:	9a01      	ldr	r2, [sp, #4]
6000404a:	7c52      	ldrb	r2, [r2, #17]
6000404c:	b10a      	cbz	r2, 60004052 <LPUART_Init+0x1ca>
6000404e:	f443 2380 	orr.w	r3, r3, #262144	; 0x40000
60004052:	2000      	movs	r0, #0
60004054:	f8ca 3018 	str.w	r3, [sl, #24]
60004058:	b003      	add	sp, #12
6000405a:	e8bd 8ff0 	ldmia.w	sp!, {r4, r5, r6, r7, r8, r9, sl, fp, pc}
6000405e:	f240 5021 	movw	r0, #1313	; 0x521
60004062:	b003      	add	sp, #12
60004064:	e8bd 8ff0 	ldmia.w	sp!, {r4, r5, r6, r7, r8, r9, sl, fp, pc}
60004068:	b171      	cbz	r1, 60004088 <LPUART_Init+0x200>
6000406a:	f423 6300 	bic.w	r3, r3, #2048	; 0x800
6000406e:	e79a      	b.n	60003fa6 <LPUART_Init+0x11e>
60004070:	4a0e      	ldr	r2, [pc, #56]	; (600040ac <LPUART_Init+0x224>)
60004072:	2403      	movs	r4, #3
60004074:	f932 3013 	ldrsh.w	r3, [r2, r3, lsl #1]
60004078:	4a07      	ldr	r2, [pc, #28]	; (60004098 <LPUART_Init+0x210>)
6000407a:	0a19      	lsrs	r1, r3, #8
6000407c:	f003 031f 	and.w	r3, r3, #31
60004080:	eb02 0281 	add.w	r2, r2, r1, lsl #2
60004084:	409c      	lsls	r4, r3
60004086:	e749      	b.n	60003f1c <LPUART_Init+0x94>
60004088:	f443 6300 	orr.w	r3, r3, #2048	; 0x800
6000408c:	e78b      	b.n	60003fa6 <LPUART_Init+0x11e>
6000408e:	bf00      	nop
60004090:	51eb851f 	.word	0x51eb851f
60004094:	60006d78 	.word	0x60006d78
60004098:	400fc068 	.word	0x400fc068
6000409c:	e0ffe000 	.word	0xe0ffe000
600040a0:	fffff8e8 	.word	0xfffff8e8
600040a4:	e01fc000 	.word	0xe01fc000
600040a8:	c01fc000 	.word	0xc01fc000
600040ac:	60006d9c 	.word	0x60006d9c
600040b0:	cccccccd 	.word	0xcccccccd

600040b4 <LPUART_GetDefaultConfig>:
600040b4:	2214      	movs	r2, #20
600040b6:	2100      	movs	r1, #0
600040b8:	b510      	push	{r4, lr}
600040ba:	4604      	mov	r4, r0
600040bc:	f002 fafb 	bl	600066b6 <memset>
600040c0:	2300      	movs	r3, #0
600040c2:	f44f 32e1 	mov.w	r2, #115200	; 0x1c200
600040c6:	e9c4 3302 	strd	r3, r3, [r4, #8]
600040ca:	e9c4 2300 	strd	r2, r3, [r4]
600040ce:	8223      	strh	r3, [r4, #16]
600040d0:	bd10      	pop	{r4, pc}
600040d2:	bf00      	nop

600040d4 <LPUART_WriteBlocking>:
600040d4:	b142      	cbz	r2, 600040e8 <LPUART_WriteBlocking+0x14>
600040d6:	440a      	add	r2, r1
600040d8:	6943      	ldr	r3, [r0, #20]
600040da:	021b      	lsls	r3, r3, #8
600040dc:	d5fc      	bpl.n	600040d8 <LPUART_WriteBlocking+0x4>
600040de:	f811 3b01 	ldrb.w	r3, [r1], #1
600040e2:	4291      	cmp	r1, r2
600040e4:	61c3      	str	r3, [r0, #28]
600040e6:	d1f7      	bne.n	600040d8 <LPUART_WriteBlocking+0x4>
600040e8:	6943      	ldr	r3, [r0, #20]
600040ea:	025b      	lsls	r3, r3, #9
600040ec:	d5fc      	bpl.n	600040e8 <LPUART_WriteBlocking+0x14>
600040ee:	2000      	movs	r0, #0
600040f0:	4770      	bx	lr
600040f2:	bf00      	nop

600040f4 <LPUART_ReadBlocking>:
600040f4:	b410      	push	{r4}
600040f6:	6984      	ldr	r4, [r0, #24]
600040f8:	0523      	lsls	r3, r4, #20
600040fa:	d472      	bmi.n	600041e2 <LPUART_ReadBlocking+0xee>
600040fc:	f004 0412 	and.w	r4, r4, #18
60004100:	f1a4 0402 	sub.w	r4, r4, #2
60004104:	fab4 f484 	clz	r4, r4
60004108:	0964      	lsrs	r4, r4, #5
6000410a:	2a00      	cmp	r2, #0
6000410c:	d057      	beq.n	600041be <LPUART_ReadBlocking+0xca>
6000410e:	3201      	adds	r2, #1
60004110:	f101 0c01 	add.w	ip, r1, #1
60004114:	4411      	add	r1, r2
60004116:	6ac3      	ldr	r3, [r0, #44]	; 0x2c
60004118:	f013 6fe0 	tst.w	r3, #117440512	; 0x7000000
6000411c:	d145      	bne.n	600041aa <LPUART_ReadBlocking+0xb6>
6000411e:	6942      	ldr	r2, [r0, #20]
60004120:	6a83      	ldr	r3, [r0, #40]	; 0x28
60004122:	0c1b      	lsrs	r3, r3, #16
60004124:	f003 03c3 	and.w	r3, r3, #195	; 0xc3
60004128:	4313      	orrs	r3, r2
6000412a:	0312      	lsls	r2, r2, #12
6000412c:	d44c      	bmi.n	600041c8 <LPUART_ReadBlocking+0xd4>
6000412e:	03da      	lsls	r2, r3, #15
60004130:	d425      	bmi.n	6000417e <LPUART_ReadBlocking+0x8a>
60004132:	039a      	lsls	r2, r3, #14
60004134:	d412      	bmi.n	6000415c <LPUART_ReadBlocking+0x68>
60004136:	035b      	lsls	r3, r3, #13
60004138:	d5ed      	bpl.n	60004116 <LPUART_ReadBlocking+0x22>
6000413a:	6943      	ldr	r3, [r0, #20]
6000413c:	f003 5378 	and.w	r3, r3, #1040187392	; 0x3e000000
60004140:	f443 2380 	orr.w	r3, r3, #262144	; 0x40000
60004144:	6143      	str	r3, [r0, #20]
60004146:	6943      	ldr	r3, [r0, #20]
60004148:	6a82      	ldr	r2, [r0, #40]	; 0x28
6000414a:	0359      	lsls	r1, r3, #13
6000414c:	d42a      	bmi.n	600041a4 <LPUART_ReadBlocking+0xb0>
6000414e:	f240 501e 	movw	r0, #1310	; 0x51e
60004152:	f85d 4b04 	ldr.w	r4, [sp], #4
60004156:	4770      	bx	lr
60004158:	039a      	lsls	r2, r3, #14
6000415a:	d521      	bpl.n	600041a0 <LPUART_ReadBlocking+0xac>
6000415c:	6942      	ldr	r2, [r0, #20]
6000415e:	f002 5278 	and.w	r2, r2, #1040187392	; 0x3e000000
60004162:	f442 3200 	orr.w	r2, r2, #131072	; 0x20000
60004166:	6142      	str	r2, [r0, #20]
60004168:	6942      	ldr	r2, [r0, #20]
6000416a:	6a81      	ldr	r1, [r0, #40]	; 0x28
6000416c:	0391      	lsls	r1, r2, #14
6000416e:	d417      	bmi.n	600041a0 <LPUART_ReadBlocking+0xac>
60004170:	035a      	lsls	r2, r3, #13
60004172:	d4e2      	bmi.n	6000413a <LPUART_ReadBlocking+0x46>
60004174:	f240 501f 	movw	r0, #1311	; 0x51f
60004178:	f85d 4b04 	ldr.w	r4, [sp], #4
6000417c:	4770      	bx	lr
6000417e:	6942      	ldr	r2, [r0, #20]
60004180:	f002 5278 	and.w	r2, r2, #1040187392	; 0x3e000000
60004184:	f442 3280 	orr.w	r2, r2, #65536	; 0x10000
60004188:	6142      	str	r2, [r0, #20]
6000418a:	6942      	ldr	r2, [r0, #20]
6000418c:	6a81      	ldr	r1, [r0, #40]	; 0x28
6000418e:	03d4      	lsls	r4, r2, #15
60004190:	d4e2      	bmi.n	60004158 <LPUART_ReadBlocking+0x64>
60004192:	0399      	lsls	r1, r3, #14
60004194:	d4e2      	bmi.n	6000415c <LPUART_ReadBlocking+0x68>
60004196:	035c      	lsls	r4, r3, #13
60004198:	d4cf      	bmi.n	6000413a <LPUART_ReadBlocking+0x46>
6000419a:	f44f 60a4 	mov.w	r0, #1312	; 0x520
6000419e:	e7d8      	b.n	60004152 <LPUART_ReadBlocking+0x5e>
600041a0:	035b      	lsls	r3, r3, #13
600041a2:	d4ca      	bmi.n	6000413a <LPUART_ReadBlocking+0x46>
600041a4:	f240 501a 	movw	r0, #1306	; 0x51a
600041a8:	e7d3      	b.n	60004152 <LPUART_ReadBlocking+0x5e>
600041aa:	b154      	cbz	r4, 600041c2 <LPUART_ReadBlocking+0xce>
600041ac:	69c3      	ldr	r3, [r0, #28]
600041ae:	f003 037f 	and.w	r3, r3, #127	; 0x7f
600041b2:	f80c 3c01 	strb.w	r3, [ip, #-1]
600041b6:	f10c 0c01 	add.w	ip, ip, #1
600041ba:	4561      	cmp	r1, ip
600041bc:	d1ab      	bne.n	60004116 <LPUART_ReadBlocking+0x22>
600041be:	2000      	movs	r0, #0
600041c0:	e7c7      	b.n	60004152 <LPUART_ReadBlocking+0x5e>
600041c2:	69c3      	ldr	r3, [r0, #28]
600041c4:	b2db      	uxtb	r3, r3
600041c6:	e7f4      	b.n	600041b2 <LPUART_ReadBlocking+0xbe>
600041c8:	6943      	ldr	r3, [r0, #20]
600041ca:	f003 5378 	and.w	r3, r3, #1040187392	; 0x3e000000
600041ce:	f443 2300 	orr.w	r3, r3, #524288	; 0x80000
600041d2:	6143      	str	r3, [r0, #20]
600041d4:	6943      	ldr	r3, [r0, #20]
600041d6:	6a82      	ldr	r2, [r0, #40]	; 0x28
600041d8:	0319      	lsls	r1, r3, #12
600041da:	d4e3      	bmi.n	600041a4 <LPUART_ReadBlocking+0xb0>
600041dc:	f240 501d 	movw	r0, #1309	; 0x51d
600041e0:	e7b7      	b.n	60004152 <LPUART_ReadBlocking+0x5e>
600041e2:	2401      	movs	r4, #1
600041e4:	e791      	b.n	6000410a <LPUART_ReadBlocking+0x16>
600041e6:	bf00      	nop

600041e8 <LPUART1_DriverIRQHandler>:
600041e8:	b508      	push	{r3, lr}
600041ea:	4a04      	ldr	r2, [pc, #16]	; (600041fc <LPUART1_DriverIRQHandler+0x14>)
600041ec:	4b04      	ldr	r3, [pc, #16]	; (60004200 <LPUART1_DriverIRQHandler+0x18>)
600041ee:	4805      	ldr	r0, [pc, #20]	; (60004204 <LPUART1_DriverIRQHandler+0x1c>)
600041f0:	681b      	ldr	r3, [r3, #0]
600041f2:	6851      	ldr	r1, [r2, #4]
600041f4:	4798      	blx	r3
600041f6:	f3bf 8f4f 	dsb	sy
600041fa:	bd08      	pop	{r3, pc}
600041fc:	8000f1a0 	.word	0x8000f1a0
60004200:	8000f1c4 	.word	0x8000f1c4
60004204:	40184000 	.word	0x40184000

60004208 <LPUART2_DriverIRQHandler>:
60004208:	b508      	push	{r3, lr}
6000420a:	4a04      	ldr	r2, [pc, #16]	; (6000421c <LPUART2_DriverIRQHandler+0x14>)
6000420c:	4b04      	ldr	r3, [pc, #16]	; (60004220 <LPUART2_DriverIRQHandler+0x18>)
6000420e:	4805      	ldr	r0, [pc, #20]	; (60004224 <LPUART2_DriverIRQHandler+0x1c>)
60004210:	681b      	ldr	r3, [r3, #0]
60004212:	6891      	ldr	r1, [r2, #8]
60004214:	4798      	blx	r3
60004216:	f3bf 8f4f 	dsb	sy
6000421a:	bd08      	pop	{r3, pc}
6000421c:	8000f1a0 	.word	0x8000f1a0
60004220:	8000f1c4 	.word	0x8000f1c4
60004224:	40188000 	.word	0x40188000

60004228 <LPUART3_DriverIRQHandler>:
60004228:	b508      	push	{r3, lr}
6000422a:	4a04      	ldr	r2, [pc, #16]	; (6000423c <LPUART3_DriverIRQHandler+0x14>)
6000422c:	4b04      	ldr	r3, [pc, #16]	; (60004240 <LPUART3_DriverIRQHandler+0x18>)
6000422e:	4805      	ldr	r0, [pc, #20]	; (60004244 <LPUART3_DriverIRQHandler+0x1c>)
60004230:	681b      	ldr	r3, [r3, #0]
60004232:	68d1      	ldr	r1, [r2, #12]
60004234:	4798      	blx	r3
60004236:	f3bf 8f4f 	dsb	sy
6000423a:	bd08      	pop	{r3, pc}
6000423c:	8000f1a0 	.word	0x8000f1a0
60004240:	8000f1c4 	.word	0x8000f1c4
60004244:	4018c000 	.word	0x4018c000

60004248 <LPUART4_DriverIRQHandler>:
60004248:	b508      	push	{r3, lr}
6000424a:	4a04      	ldr	r2, [pc, #16]	; (6000425c <LPUART4_DriverIRQHandler+0x14>)
6000424c:	4b04      	ldr	r3, [pc, #16]	; (60004260 <LPUART4_DriverIRQHandler+0x18>)
6000424e:	4805      	ldr	r0, [pc, #20]	; (60004264 <LPUART4_DriverIRQHandler+0x1c>)
60004250:	681b      	ldr	r3, [r3, #0]
60004252:	6911      	ldr	r1, [r2, #16]
60004254:	4798      	blx	r3
60004256:	f3bf 8f4f 	dsb	sy
6000425a:	bd08      	pop	{r3, pc}
6000425c:	8000f1a0 	.word	0x8000f1a0
60004260:	8000f1c4 	.word	0x8000f1c4
60004264:	40190000 	.word	0x40190000

60004268 <LPUART5_DriverIRQHandler>:
60004268:	b508      	push	{r3, lr}
6000426a:	4a04      	ldr	r2, [pc, #16]	; (6000427c <LPUART5_DriverIRQHandler+0x14>)
6000426c:	4b04      	ldr	r3, [pc, #16]	; (60004280 <LPUART5_DriverIRQHandler+0x18>)
6000426e:	4805      	ldr	r0, [pc, #20]	; (60004284 <LPUART5_DriverIRQHandler+0x1c>)
60004270:	681b      	ldr	r3, [r3, #0]
60004272:	6951      	ldr	r1, [r2, #20]
60004274:	4798      	blx	r3
60004276:	f3bf 8f4f 	dsb	sy
6000427a:	bd08      	pop	{r3, pc}
6000427c:	8000f1a0 	.word	0x8000f1a0
60004280:	8000f1c4 	.word	0x8000f1c4
60004284:	40194000 	.word	0x40194000

60004288 <LPUART6_DriverIRQHandler>:
60004288:	b508      	push	{r3, lr}
6000428a:	4a04      	ldr	r2, [pc, #16]	; (6000429c <LPUART6_DriverIRQHandler+0x14>)
6000428c:	4b04      	ldr	r3, [pc, #16]	; (600042a0 <LPUART6_DriverIRQHandler+0x18>)
6000428e:	4805      	ldr	r0, [pc, #20]	; (600042a4 <LPUART6_DriverIRQHandler+0x1c>)
60004290:	681b      	ldr	r3, [r3, #0]
60004292:	6991      	ldr	r1, [r2, #24]
60004294:	4798      	blx	r3
60004296:	f3bf 8f4f 	dsb	sy
6000429a:	bd08      	pop	{r3, pc}
6000429c:	8000f1a0 	.word	0x8000f1a0
600042a0:	8000f1c4 	.word	0x8000f1c4
600042a4:	40198000 	.word	0x40198000

600042a8 <LPUART7_DriverIRQHandler>:
600042a8:	b508      	push	{r3, lr}
600042aa:	4a04      	ldr	r2, [pc, #16]	; (600042bc <LPUART7_DriverIRQHandler+0x14>)
600042ac:	4b04      	ldr	r3, [pc, #16]	; (600042c0 <LPUART7_DriverIRQHandler+0x18>)
600042ae:	4805      	ldr	r0, [pc, #20]	; (600042c4 <LPUART7_DriverIRQHandler+0x1c>)
600042b0:	681b      	ldr	r3, [r3, #0]
600042b2:	69d1      	ldr	r1, [r2, #28]
600042b4:	4798      	blx	r3
600042b6:	f3bf 8f4f 	dsb	sy
600042ba:	bd08      	pop	{r3, pc}
600042bc:	8000f1a0 	.word	0x8000f1a0
600042c0:	8000f1c4 	.word	0x8000f1c4
600042c4:	4019c000 	.word	0x4019c000

600042c8 <LPUART8_DriverIRQHandler>:
600042c8:	b508      	push	{r3, lr}
600042ca:	4a04      	ldr	r2, [pc, #16]	; (600042dc <LPUART8_DriverIRQHandler+0x14>)
600042cc:	4b04      	ldr	r3, [pc, #16]	; (600042e0 <LPUART8_DriverIRQHandler+0x18>)
600042ce:	4805      	ldr	r0, [pc, #20]	; (600042e4 <LPUART8_DriverIRQHandler+0x1c>)
600042d0:	681b      	ldr	r3, [r3, #0]
600042d2:	6a11      	ldr	r1, [r2, #32]
600042d4:	4798      	blx	r3
600042d6:	f3bf 8f4f 	dsb	sy
600042da:	bd08      	pop	{r3, pc}
600042dc:	8000f1a0 	.word	0x8000f1a0
600042e0:	8000f1c4 	.word	0x8000f1c4
600042e4:	401a0000 	.word	0x401a0000

600042e8 <SystemInitHook>:
600042e8:	4770      	bx	lr
600042ea:	bf00      	nop

600042ec <SystemInit>:
600042ec:	4b4b      	ldr	r3, [pc, #300]	; (6000441c <SystemInit+0x130>)
600042ee:	4a4c      	ldr	r2, [pc, #304]	; (60004420 <SystemInit+0x134>)
600042f0:	484c      	ldr	r0, [pc, #304]	; (60004424 <SystemInit+0x138>)
600042f2:	b510      	push	{r4, lr}
600042f4:	f8d3 1088 	ldr.w	r1, [r3, #136]	; 0x88
600042f8:	4c4b      	ldr	r4, [pc, #300]	; (60004428 <SystemInit+0x13c>)
600042fa:	f441 0170 	orr.w	r1, r1, #15728640	; 0xf00000
600042fe:	f8c3 1088 	str.w	r1, [r3, #136]	; 0x88
60004302:	609c      	str	r4, [r3, #8]
60004304:	8913      	ldrh	r3, [r2, #8]
60004306:	f023 0301 	bic.w	r3, r3, #1
6000430a:	041b      	lsls	r3, r3, #16
6000430c:	0c1b      	lsrs	r3, r3, #16
6000430e:	8113      	strh	r3, [r2, #8]
60004310:	8903      	ldrh	r3, [r0, #8]
60004312:	f023 0301 	bic.w	r3, r3, #1
60004316:	041b      	lsls	r3, r3, #16
60004318:	0c1b      	lsrs	r3, r3, #16
6000431a:	8103      	strh	r3, [r0, #8]
6000431c:	8813      	ldrh	r3, [r2, #0]
6000431e:	0758      	lsls	r0, r3, #29
60004320:	d505      	bpl.n	6000432e <SystemInit+0x42>
60004322:	8813      	ldrh	r3, [r2, #0]
60004324:	f023 0304 	bic.w	r3, r3, #4
60004328:	041b      	lsls	r3, r3, #16
6000432a:	0c1b      	lsrs	r3, r3, #16
6000432c:	8013      	strh	r3, [r2, #0]
6000432e:	4a3d      	ldr	r2, [pc, #244]	; (60004424 <SystemInit+0x138>)
60004330:	8813      	ldrh	r3, [r2, #0]
60004332:	0759      	lsls	r1, r3, #29
60004334:	d505      	bpl.n	60004342 <SystemInit+0x56>
60004336:	8813      	ldrh	r3, [r2, #0]
60004338:	f023 0304 	bic.w	r3, r3, #4
6000433c:	041b      	lsls	r3, r3, #16
6000433e:	0c1b      	lsrs	r3, r3, #16
60004340:	8013      	strh	r3, [r2, #0]
60004342:	4b3a      	ldr	r3, [pc, #232]	; (6000442c <SystemInit+0x140>)
60004344:	681a      	ldr	r2, [r3, #0]
60004346:	0492      	lsls	r2, r2, #18
60004348:	d560      	bpl.n	6000440c <SystemInit+0x120>
6000434a:	4a39      	ldr	r2, [pc, #228]	; (60004430 <SystemInit+0x144>)
6000434c:	605a      	str	r2, [r3, #4]
6000434e:	4a37      	ldr	r2, [pc, #220]	; (6000442c <SystemInit+0x140>)
60004350:	f64f 73ff 	movw	r3, #65535	; 0xffff
60004354:	f04f 21e0 	mov.w	r1, #3758153728	; 0xe000e000
60004358:	6093      	str	r3, [r2, #8]
6000435a:	6813      	ldr	r3, [r2, #0]
6000435c:	f023 03a0 	bic.w	r3, r3, #160	; 0xa0
60004360:	f043 0320 	orr.w	r3, r3, #32
60004364:	6013      	str	r3, [r2, #0]
60004366:	690b      	ldr	r3, [r1, #16]
60004368:	07db      	lsls	r3, r3, #31
6000436a:	d503      	bpl.n	60004374 <SystemInit+0x88>
6000436c:	690b      	ldr	r3, [r1, #16]
6000436e:	f023 0301 	bic.w	r3, r3, #1
60004372:	610b      	str	r3, [r1, #16]
60004374:	4b29      	ldr	r3, [pc, #164]	; (6000441c <SystemInit+0x130>)
60004376:	695a      	ldr	r2, [r3, #20]
60004378:	0394      	lsls	r4, r2, #14
6000437a:	d415      	bmi.n	600043a8 <SystemInit+0xbc>
6000437c:	695a      	ldr	r2, [r3, #20]
6000437e:	f412 3200 	ands.w	r2, r2, #131072	; 0x20000
60004382:	d111      	bne.n	600043a8 <SystemInit+0xbc>
60004384:	f3bf 8f4f 	dsb	sy
60004388:	f3bf 8f6f 	isb	sy
6000438c:	f8c3 2250 	str.w	r2, [r3, #592]	; 0x250
60004390:	f3bf 8f4f 	dsb	sy
60004394:	f3bf 8f6f 	isb	sy
60004398:	695a      	ldr	r2, [r3, #20]
6000439a:	f442 3200 	orr.w	r2, r2, #131072	; 0x20000
6000439e:	615a      	str	r2, [r3, #20]
600043a0:	f3bf 8f4f 	dsb	sy
600043a4:	f3bf 8f6f 	isb	sy
600043a8:	491c      	ldr	r1, [pc, #112]	; (6000441c <SystemInit+0x130>)
600043aa:	694b      	ldr	r3, [r1, #20]
600043ac:	03d8      	lsls	r0, r3, #15
600043ae:	d42a      	bmi.n	60004406 <SystemInit+0x11a>
600043b0:	694b      	ldr	r3, [r1, #20]
600043b2:	f413 3380 	ands.w	r3, r3, #65536	; 0x10000
600043b6:	d126      	bne.n	60004406 <SystemInit+0x11a>
600043b8:	f8c1 3084 	str.w	r3, [r1, #132]	; 0x84
600043bc:	f3bf 8f4f 	dsb	sy
600043c0:	f8d1 3080 	ldr.w	r3, [r1, #128]	; 0x80
600043c4:	f643 74e0 	movw	r4, #16352	; 0x3fe0
600043c8:	f3c3 3c4e 	ubfx	ip, r3, #13, #15
600043cc:	f3c3 0ec9 	ubfx	lr, r3, #3, #10
600043d0:	ea4f 1c4c 	mov.w	ip, ip, lsl #5
600043d4:	ea0c 0004 	and.w	r0, ip, r4
600043d8:	4673      	mov	r3, lr
600043da:	ea40 7283 	orr.w	r2, r0, r3, lsl #30
600043de:	3b01      	subs	r3, #1
600043e0:	f8c1 2260 	str.w	r2, [r1, #608]	; 0x260
600043e4:	1c5a      	adds	r2, r3, #1
600043e6:	d1f8      	bne.n	600043da <SystemInit+0xee>
600043e8:	f1ac 0c20 	sub.w	ip, ip, #32
600043ec:	f11c 0f20 	cmn.w	ip, #32
600043f0:	d1f0      	bne.n	600043d4 <SystemInit+0xe8>
600043f2:	f3bf 8f4f 	dsb	sy
600043f6:	694b      	ldr	r3, [r1, #20]
600043f8:	f443 3380 	orr.w	r3, r3, #65536	; 0x10000
600043fc:	614b      	str	r3, [r1, #20]
600043fe:	f3bf 8f4f 	dsb	sy
60004402:	f3bf 8f6f 	isb	sy
60004406:	f7ff ff6f 	bl	600042e8 <SystemInitHook>
6000440a:	bd10      	pop	{r4, pc}
6000440c:	f24c 5120 	movw	r1, #50464	; 0xc520
60004410:	f64d 1228 	movw	r2, #55592	; 0xd928
60004414:	6059      	str	r1, [r3, #4]
60004416:	605a      	str	r2, [r3, #4]
60004418:	e799      	b.n	6000434e <SystemInit+0x62>
6000441a:	bf00      	nop
6000441c:	e000ed00 	.word	0xe000ed00
60004420:	400b8000 	.word	0x400b8000
60004424:	400d0000 	.word	0x400d0000
60004428:	60002000 	.word	0x60002000
6000442c:	400bc000 	.word	0x400bc000
60004430:	d928c520 	.word	0xd928c520

60004434 <HAL_UartInit>:
60004434:	b530      	push	{r4, r5, lr}
60004436:	b087      	sub	sp, #28
60004438:	460c      	mov	r4, r1
6000443a:	4605      	mov	r5, r0
6000443c:	a801      	add	r0, sp, #4
6000443e:	f7ff fe39 	bl	600040b4 <LPUART_GetDefaultConfig>
60004442:	7aa3      	ldrb	r3, [r4, #10]
60004444:	7ae2      	ldrb	r2, [r4, #11]
60004446:	3b00      	subs	r3, #0
60004448:	7ba0      	ldrb	r0, [r4, #14]
6000444a:	6861      	ldr	r1, [r4, #4]
6000444c:	bf18      	it	ne
6000444e:	2301      	movne	r3, #1
60004450:	3a00      	subs	r2, #0
60004452:	9101      	str	r1, [sp, #4]
60004454:	a901      	add	r1, sp, #4
60004456:	f88d 3015 	strb.w	r3, [sp, #21]
6000445a:	bf18      	it	ne
6000445c:	2201      	movne	r2, #1
6000445e:	7b23      	ldrb	r3, [r4, #12]
60004460:	f88d 2014 	strb.w	r2, [sp, #20]
60004464:	3b00      	subs	r3, #0
60004466:	4a11      	ldr	r2, [pc, #68]	; (600044ac <HAL_UartInit+0x78>)
60004468:	bf18      	it	ne
6000446a:	2301      	movne	r3, #1
6000446c:	f852 0020 	ldr.w	r0, [r2, r0, lsl #2]
60004470:	f240 1201 	movw	r2, #257	; 0x101
60004474:	f88d 300e 	strb.w	r3, [sp, #14]
60004478:	7b63      	ldrb	r3, [r4, #13]
6000447a:	f8ad 2012 	strh.w	r2, [sp, #18]
6000447e:	3b00      	subs	r3, #0
60004480:	6822      	ldr	r2, [r4, #0]
60004482:	bf18      	it	ne
60004484:	2301      	movne	r3, #1
60004486:	f88d 300f 	strb.w	r3, [sp, #15]
6000448a:	7a23      	ldrb	r3, [r4, #8]
6000448c:	f88d 3008 	strb.w	r3, [sp, #8]
60004490:	7a63      	ldrb	r3, [r4, #9]
60004492:	f88d 300b 	strb.w	r3, [sp, #11]
60004496:	f7ff fcf7 	bl	60003e88 <LPUART_Init>
6000449a:	b918      	cbnz	r0, 600044a4 <HAL_UartInit+0x70>
6000449c:	7ba3      	ldrb	r3, [r4, #14]
6000449e:	702b      	strb	r3, [r5, #0]
600044a0:	b007      	add	sp, #28
600044a2:	bd30      	pop	{r4, r5, pc}
600044a4:	f642 70af 	movw	r0, #12207	; 0x2faf
600044a8:	b007      	add	sp, #28
600044aa:	bd30      	pop	{r4, r5, pc}
600044ac:	60006db0 	.word	0x60006db0

600044b0 <HAL_UartReceiveBlocking>:
600044b0:	b508      	push	{r3, lr}
600044b2:	4b06      	ldr	r3, [pc, #24]	; (600044cc <HAL_UartReceiveBlocking+0x1c>)
600044b4:	7800      	ldrb	r0, [r0, #0]
600044b6:	f853 0020 	ldr.w	r0, [r3, r0, lsl #2]
600044ba:	f7ff fe1b 	bl	600040f4 <LPUART_ReadBlocking>
600044be:	f642 73af 	movw	r3, #12207	; 0x2faf
600044c2:	2800      	cmp	r0, #0
600044c4:	bf14      	ite	ne
600044c6:	4618      	movne	r0, r3
600044c8:	2000      	moveq	r0, #0
600044ca:	bd08      	pop	{r3, pc}
600044cc:	60006db0 	.word	0x60006db0

600044d0 <HAL_UartSendBlocking>:
600044d0:	b508      	push	{r3, lr}
600044d2:	4b04      	ldr	r3, [pc, #16]	; (600044e4 <HAL_UartSendBlocking+0x14>)
600044d4:	7800      	ldrb	r0, [r0, #0]
600044d6:	f853 0020 	ldr.w	r0, [r3, r0, lsl #2]
600044da:	f7ff fdfb 	bl	600040d4 <LPUART_WriteBlocking>
600044de:	2000      	movs	r0, #0
600044e0:	bd08      	pop	{r3, pc}
600044e2:	bf00      	nop
600044e4:	60006db0 	.word	0x60006db0

600044e8 <BOARD_DebugConsoleSrcFreq>:
600044e8:	b510      	push	{r4, lr}
600044ea:	4c11      	ldr	r4, [pc, #68]	; (60004530 <BOARD_DebugConsoleSrcFreq+0x48>)
600044ec:	6a63      	ldr	r3, [r4, #36]	; 0x24
600044ee:	065a      	lsls	r2, r3, #25
600044f0:	d510      	bpl.n	60004514 <BOARD_DebugConsoleSrcFreq+0x2c>
600044f2:	4b10      	ldr	r3, [pc, #64]	; (60004534 <BOARD_DebugConsoleSrcFreq+0x4c>)
600044f4:	f8d3 3270 	ldr.w	r3, [r3, #624]	; 0x270
600044f8:	06db      	lsls	r3, r3, #27
600044fa:	d409      	bmi.n	60004510 <BOARD_DebugConsoleSrcFreq+0x28>
600044fc:	4b0e      	ldr	r3, [pc, #56]	; (60004538 <BOARD_DebugConsoleSrcFreq+0x50>)
600044fe:	6818      	ldr	r0, [r3, #0]
60004500:	4b0b      	ldr	r3, [pc, #44]	; (60004530 <BOARD_DebugConsoleSrcFreq+0x48>)
60004502:	6a5b      	ldr	r3, [r3, #36]	; 0x24
60004504:	f003 033f 	and.w	r3, r3, #63	; 0x3f
60004508:	3301      	adds	r3, #1
6000450a:	fbb0 f0f3 	udiv	r0, r0, r3
6000450e:	bd10      	pop	{r4, pc}
60004510:	480a      	ldr	r0, [pc, #40]	; (6000453c <BOARD_DebugConsoleSrcFreq+0x54>)
60004512:	e7f5      	b.n	60004500 <BOARD_DebugConsoleSrcFreq+0x18>
60004514:	480a      	ldr	r0, [pc, #40]	; (60004540 <BOARD_DebugConsoleSrcFreq+0x58>)
60004516:	f7ff fbb7 	bl	60003c88 <CLOCK_GetPllFreq>
6000451a:	6a63      	ldr	r3, [r4, #36]	; 0x24
6000451c:	4a09      	ldr	r2, [pc, #36]	; (60004544 <BOARD_DebugConsoleSrcFreq+0x5c>)
6000451e:	f003 033f 	and.w	r3, r3, #63	; 0x3f
60004522:	fba2 2000 	umull	r2, r0, r2, r0
60004526:	3301      	adds	r3, #1
60004528:	0880      	lsrs	r0, r0, #2
6000452a:	fbb0 f0f3 	udiv	r0, r0, r3
6000452e:	bd10      	pop	{r4, pc}
60004530:	400fc000 	.word	0x400fc000
60004534:	400d8000 	.word	0x400d8000
60004538:	8000f19c 	.word	0x8000f19c
6000453c:	016e3600 	.word	0x016e3600
60004540:	0010000d 	.word	0x0010000d
60004544:	aaaaaaab 	.word	0xaaaaaaab

60004548 <BOARD_InitDebugConsole>:
60004548:	b510      	push	{r4, lr}
6000454a:	f7ff ffcd 	bl	600044e8 <BOARD_DebugConsoleSrcFreq>
6000454e:	2201      	movs	r2, #1
60004550:	4603      	mov	r3, r0
60004552:	f44f 31e1 	mov.w	r1, #115200	; 0x1c200
60004556:	4610      	mov	r0, r2
60004558:	e8bd 4010 	ldmia.w	sp!, {r4, lr}
6000455c:	f7fe b978 	b.w	60002850 <DbgConsole_Init>

60004560 <BOARD_BootClockRUN>:
60004560:	b538      	push	{r3, r4, r5, lr}
60004562:	4abc      	ldr	r2, [pc, #752]	; (60004854 <BOARD_BootClockRUN+0x2f4>)
60004564:	f44f 4000 	mov.w	r0, #32768	; 0x8000
60004568:	4bbb      	ldr	r3, [pc, #748]	; (60004858 <BOARD_BootClockRUN+0x2f8>)
6000456a:	6010      	str	r0, [r2, #0]
6000456c:	2000      	movs	r0, #0
6000456e:	f8d3 22c0 	ldr.w	r2, [r3, #704]	; 0x2c0
60004572:	49ba      	ldr	r1, [pc, #744]	; (6000485c <BOARD_BootClockRUN+0x2fc>)
60004574:	f442 3280 	orr.w	r2, r2, #65536	; 0x10000
60004578:	4cb9      	ldr	r4, [pc, #740]	; (60004860 <BOARD_BootClockRUN+0x300>)
6000457a:	f8c3 22c0 	str.w	r2, [r3, #704]	; 0x2c0
6000457e:	f8d3 22c0 	ldr.w	r2, [r3, #704]	; 0x2c0
60004582:	f422 3200 	bic.w	r2, r2, #131072	; 0x20000
60004586:	f8c3 22c0 	str.w	r2, [r3, #704]	; 0x2c0
6000458a:	600c      	str	r4, [r1, #0]
6000458c:	f7ff fb10 	bl	60003bb0 <CLOCK_InitExternalClk>
60004590:	f7ff fb34 	bl	60003bfc <CLOCK_InitRcOsc24M>
60004594:	2001      	movs	r0, #1
60004596:	f7ff fb25 	bl	60003be4 <CLOCK_SwitchOsc>
6000459a:	4bb2      	ldr	r3, [pc, #712]	; (60004864 <BOARD_BootClockRUN+0x304>)
6000459c:	681a      	ldr	r2, [r3, #0]
6000459e:	f022 02ff 	bic.w	r2, r2, #255	; 0xff
600045a2:	f042 027f 	orr.w	r2, r2, #127	; 0x7f
600045a6:	601a      	str	r2, [r3, #0]
600045a8:	699a      	ldr	r2, [r3, #24]
600045aa:	f422 5240 	bic.w	r2, r2, #12288	; 0x3000
600045ae:	f442 5280 	orr.w	r2, r2, #4096	; 0x1000
600045b2:	619a      	str	r2, [r3, #24]
600045b4:	695a      	ldr	r2, [r3, #20]
600045b6:	f042 7200 	orr.w	r2, r2, #33554432	; 0x2000000
600045ba:	615a      	str	r2, [r3, #20]
600045bc:	6c9a      	ldr	r2, [r3, #72]	; 0x48
600045be:	0695      	lsls	r5, r2, #26
600045c0:	d4fc      	bmi.n	600045bc <BOARD_BootClockRUN+0x5c>
600045c2:	4aa9      	ldr	r2, [pc, #676]	; (60004868 <BOARD_BootClockRUN+0x308>)
600045c4:	68d3      	ldr	r3, [r2, #12]
600045c6:	f023 031f 	bic.w	r3, r3, #31
600045ca:	f043 0313 	orr.w	r3, r3, #19
600045ce:	60d3      	str	r3, [r2, #12]
600045d0:	6813      	ldr	r3, [r2, #0]
600045d2:	2b00      	cmp	r3, #0
600045d4:	dafc      	bge.n	600045d0 <BOARD_BootClockRUN+0x70>
600045d6:	4aa3      	ldr	r2, [pc, #652]	; (60004864 <BOARD_BootClockRUN+0x304>)
600045d8:	6953      	ldr	r3, [r2, #20]
600045da:	f423 53e0 	bic.w	r3, r3, #7168	; 0x1c00
600045de:	6153      	str	r3, [r2, #20]
600045e0:	6c93      	ldr	r3, [r2, #72]	; 0x48
600045e2:	079c      	lsls	r4, r3, #30
600045e4:	d4fc      	bmi.n	600045e0 <BOARD_BootClockRUN+0x80>
600045e6:	4a9f      	ldr	r2, [pc, #636]	; (60004864 <BOARD_BootClockRUN+0x304>)
600045e8:	f102 036c 	add.w	r3, r2, #108	; 0x6c
600045ec:	e853 3f00 	ldrex	r3, [r3]
600045f0:	f423 3340 	bic.w	r3, r3, #196608	; 0x30000
600045f4:	f102 006c 	add.w	r0, r2, #108	; 0x6c
600045f8:	e840 3100 	strex	r1, r3, [r0]
600045fc:	2900      	cmp	r1, #0
600045fe:	d1f3      	bne.n	600045e8 <BOARD_BootClockRUN+0x88>
60004600:	4a98      	ldr	r2, [pc, #608]	; (60004864 <BOARD_BootClockRUN+0x304>)
60004602:	f102 036c 	add.w	r3, r2, #108	; 0x6c
60004606:	e853 3f00 	ldrex	r3, [r3]
6000460a:	f423 7340 	bic.w	r3, r3, #768	; 0x300
6000460e:	f102 006c 	add.w	r0, r2, #108	; 0x6c
60004612:	e840 3100 	strex	r1, r3, [r0]
60004616:	2900      	cmp	r1, #0
60004618:	d1f3      	bne.n	60004602 <BOARD_BootClockRUN+0xa2>
6000461a:	4a92      	ldr	r2, [pc, #584]	; (60004864 <BOARD_BootClockRUN+0x304>)
6000461c:	f102 0370 	add.w	r3, r2, #112	; 0x70
60004620:	e853 3f00 	ldrex	r3, [r3]
60004624:	f423 0340 	bic.w	r3, r3, #12582912	; 0xc00000
60004628:	f102 0070 	add.w	r0, r2, #112	; 0x70
6000462c:	e840 3100 	strex	r1, r3, [r0]
60004630:	2900      	cmp	r1, #0
60004632:	d1f3      	bne.n	6000461c <BOARD_BootClockRUN+0xbc>
60004634:	4a8b      	ldr	r2, [pc, #556]	; (60004864 <BOARD_BootClockRUN+0x304>)
60004636:	f102 0370 	add.w	r3, r2, #112	; 0x70
6000463a:	e853 3f00 	ldrex	r3, [r3]
6000463e:	f023 7340 	bic.w	r3, r3, #50331648	; 0x3000000
60004642:	f102 0070 	add.w	r0, r2, #112	; 0x70
60004646:	e840 3100 	strex	r1, r3, [r0]
6000464a:	2900      	cmp	r1, #0
6000464c:	d1f3      	bne.n	60004636 <BOARD_BootClockRUN+0xd6>
6000464e:	4a85      	ldr	r2, [pc, #532]	; (60004864 <BOARD_BootClockRUN+0x304>)
60004650:	f102 0370 	add.w	r3, r2, #112	; 0x70
60004654:	e853 3f00 	ldrex	r3, [r3]
60004658:	f423 4340 	bic.w	r3, r3, #49152	; 0xc000
6000465c:	f102 0070 	add.w	r0, r2, #112	; 0x70
60004660:	e840 3100 	strex	r1, r3, [r0]
60004664:	2900      	cmp	r1, #0
60004666:	d1f3      	bne.n	60004650 <BOARD_BootClockRUN+0xf0>
60004668:	6953      	ldr	r3, [r2, #20]
6000466a:	497e      	ldr	r1, [pc, #504]	; (60004864 <BOARD_BootClockRUN+0x304>)
6000466c:	f443 7340 	orr.w	r3, r3, #768	; 0x300
60004670:	6153      	str	r3, [r2, #20]
60004672:	6913      	ldr	r3, [r2, #16]
60004674:	f023 0307 	bic.w	r3, r3, #7
60004678:	f043 0301 	orr.w	r3, r3, #1
6000467c:	6113      	str	r3, [r2, #16]
6000467e:	6c8b      	ldr	r3, [r1, #72]	; 0x48
60004680:	03d8      	lsls	r0, r3, #15
60004682:	d4fc      	bmi.n	6000467e <BOARD_BootClockRUN+0x11e>
60004684:	694b      	ldr	r3, [r1, #20]
60004686:	4a77      	ldr	r2, [pc, #476]	; (60004864 <BOARD_BootClockRUN+0x304>)
60004688:	f023 5360 	bic.w	r3, r3, #939524096	; 0x38000000
6000468c:	614b      	str	r3, [r1, #20]
6000468e:	f102 036c 	add.w	r3, r2, #108	; 0x6c
60004692:	e853 3f00 	ldrex	r3, [r3]
60004696:	f423 1340 	bic.w	r3, r3, #3145728	; 0x300000
6000469a:	f102 006c 	add.w	r0, r2, #108	; 0x6c
6000469e:	e840 3100 	strex	r1, r3, [r0]
600046a2:	2900      	cmp	r1, #0
600046a4:	d1f3      	bne.n	6000468e <BOARD_BootClockRUN+0x12e>
600046a6:	4a6f      	ldr	r2, [pc, #444]	; (60004864 <BOARD_BootClockRUN+0x304>)
600046a8:	f102 036c 	add.w	r3, r2, #108	; 0x6c
600046ac:	e853 3f00 	ldrex	r3, [r3]
600046b0:	f423 0340 	bic.w	r3, r3, #12582912	; 0xc00000
600046b4:	f102 006c 	add.w	r0, r2, #108	; 0x6c
600046b8:	e840 3100 	strex	r1, r3, [r0]
600046bc:	2900      	cmp	r1, #0
600046be:	d1f3      	bne.n	600046a8 <BOARD_BootClockRUN+0x148>
600046c0:	4a68      	ldr	r2, [pc, #416]	; (60004864 <BOARD_BootClockRUN+0x304>)
600046c2:	f102 0368 	add.w	r3, r2, #104	; 0x68
600046c6:	e853 3f00 	ldrex	r3, [r3]
600046ca:	f023 7340 	bic.w	r3, r3, #50331648	; 0x3000000
600046ce:	f102 0068 	add.w	r0, r2, #104	; 0x68
600046d2:	e840 3100 	strex	r1, r3, [r0]
600046d6:	2900      	cmp	r1, #0
600046d8:	d1f3      	bne.n	600046c2 <BOARD_BootClockRUN+0x162>
600046da:	4a62      	ldr	r2, [pc, #392]	; (60004864 <BOARD_BootClockRUN+0x304>)
600046dc:	f102 0368 	add.w	r3, r2, #104	; 0x68
600046e0:	e853 3f00 	ldrex	r3, [r3]
600046e4:	f023 6340 	bic.w	r3, r3, #201326592	; 0xc000000
600046e8:	f102 0068 	add.w	r0, r2, #104	; 0x68
600046ec:	e840 3100 	strex	r1, r3, [r0]
600046f0:	2900      	cmp	r1, #0
600046f2:	d1f3      	bne.n	600046dc <BOARD_BootClockRUN+0x17c>
600046f4:	495b      	ldr	r1, [pc, #364]	; (60004864 <BOARD_BootClockRUN+0x304>)
600046f6:	f101 036c 	add.w	r3, r1, #108	; 0x6c
600046fa:	e853 3f00 	ldrex	r3, [r3]
600046fe:	f423 5340 	bic.w	r3, r3, #12288	; 0x3000
60004702:	f101 006c 	add.w	r0, r1, #108	; 0x6c
60004706:	e840 3200 	strex	r2, r3, [r0]
6000470a:	2a00      	cmp	r2, #0
6000470c:	d1f3      	bne.n	600046f6 <BOARD_BootClockRUN+0x196>
6000470e:	69cb      	ldr	r3, [r1, #28]
60004710:	4a54      	ldr	r2, [pc, #336]	; (60004864 <BOARD_BootClockRUN+0x304>)
60004712:	f023 033f 	bic.w	r3, r3, #63	; 0x3f
60004716:	f043 0301 	orr.w	r3, r3, #1
6000471a:	61cb      	str	r3, [r1, #28]
6000471c:	f102 0380 	add.w	r3, r2, #128	; 0x80
60004720:	e853 3f00 	ldrex	r3, [r3]
60004724:	f023 030c 	bic.w	r3, r3, #12
60004728:	f102 0080 	add.w	r0, r2, #128	; 0x80
6000472c:	e840 3100 	strex	r1, r3, [r0]
60004730:	2900      	cmp	r1, #0
60004732:	d1f3      	bne.n	6000471c <BOARD_BootClockRUN+0x1bc>
60004734:	6a53      	ldr	r3, [r2, #36]	; 0x24
60004736:	494b      	ldr	r1, [pc, #300]	; (60004864 <BOARD_BootClockRUN+0x304>)
60004738:	f423 5360 	bic.w	r3, r3, #14336	; 0x3800
6000473c:	f443 6300 	orr.w	r3, r3, #2048	; 0x800
60004740:	6253      	str	r3, [r2, #36]	; 0x24
60004742:	69d3      	ldr	r3, [r2, #28]
60004744:	f423 3380 	bic.w	r3, r3, #65536	; 0x10000
60004748:	61d3      	str	r3, [r2, #28]
6000474a:	f101 0380 	add.w	r3, r1, #128	; 0x80
6000474e:	e853 3f00 	ldrex	r3, [r3]
60004752:	f023 0330 	bic.w	r3, r3, #48	; 0x30
60004756:	f101 0080 	add.w	r0, r1, #128	; 0x80
6000475a:	e840 3200 	strex	r2, r3, [r0]
6000475e:	2a00      	cmp	r2, #0
60004760:	d1f3      	bne.n	6000474a <BOARD_BootClockRUN+0x1ea>
60004762:	6a4b      	ldr	r3, [r1, #36]	; 0x24
60004764:	4a3f      	ldr	r2, [pc, #252]	; (60004864 <BOARD_BootClockRUN+0x304>)
60004766:	f423 23e0 	bic.w	r3, r3, #458752	; 0x70000
6000476a:	f443 3380 	orr.w	r3, r3, #65536	; 0x10000
6000476e:	624b      	str	r3, [r1, #36]	; 0x24
60004770:	69cb      	ldr	r3, [r1, #28]
60004772:	f423 3300 	bic.w	r3, r3, #131072	; 0x20000
60004776:	61cb      	str	r3, [r1, #28]
60004778:	f102 0370 	add.w	r3, r2, #112	; 0x70
6000477c:	e853 3f00 	ldrex	r3, [r3]
60004780:	f023 030c 	bic.w	r3, r3, #12
60004784:	f102 0070 	add.w	r0, r2, #112	; 0x70
60004788:	e840 3100 	strex	r1, r3, [r0]
6000478c:	2900      	cmp	r1, #0
6000478e:	d1f3      	bne.n	60004778 <BOARD_BootClockRUN+0x218>
60004790:	6bd3      	ldr	r3, [r2, #60]	; 0x3c
60004792:	4934      	ldr	r1, [pc, #208]	; (60004864 <BOARD_BootClockRUN+0x304>)
60004794:	f423 5360 	bic.w	r3, r3, #14336	; 0x3800
60004798:	f443 6300 	orr.w	r3, r3, #2048	; 0x800
6000479c:	63d3      	str	r3, [r2, #60]	; 0x3c
6000479e:	6bd3      	ldr	r3, [r2, #60]	; 0x3c
600047a0:	f423 63c0 	bic.w	r3, r3, #1536	; 0x600
600047a4:	63d3      	str	r3, [r2, #60]	; 0x3c
600047a6:	f101 036c 	add.w	r3, r1, #108	; 0x6c
600047aa:	e853 3f00 	ldrex	r3, [r3]
600047ae:	f023 0303 	bic.w	r3, r3, #3
600047b2:	f101 006c 	add.w	r0, r1, #108	; 0x6c
600047b6:	e840 3200 	strex	r2, r3, [r0]
600047ba:	2a00      	cmp	r2, #0
600047bc:	d1f3      	bne.n	600047a6 <BOARD_BootClockRUN+0x246>
600047be:	4a29      	ldr	r2, [pc, #164]	; (60004864 <BOARD_BootClockRUN+0x304>)
600047c0:	f102 036c 	add.w	r3, r2, #108	; 0x6c
600047c4:	e853 3f00 	ldrex	r3, [r3]
600047c8:	f023 030c 	bic.w	r3, r3, #12
600047cc:	f102 006c 	add.w	r0, r2, #108	; 0x6c
600047d0:	e840 3100 	strex	r1, r3, [r0]
600047d4:	2900      	cmp	r1, #0
600047d6:	d1f3      	bne.n	600047c0 <BOARD_BootClockRUN+0x260>
600047d8:	4a22      	ldr	r2, [pc, #136]	; (60004864 <BOARD_BootClockRUN+0x304>)
600047da:	f102 036c 	add.w	r3, r2, #108	; 0x6c
600047de:	e853 3f00 	ldrex	r3, [r3]
600047e2:	f023 0330 	bic.w	r3, r3, #48	; 0x30
600047e6:	f102 006c 	add.w	r0, r2, #108	; 0x6c
600047ea:	e840 3100 	strex	r1, r3, [r0]
600047ee:	2900      	cmp	r1, #0
600047f0:	d1f3      	bne.n	600047da <BOARD_BootClockRUN+0x27a>
600047f2:	4a1c      	ldr	r2, [pc, #112]	; (60004864 <BOARD_BootClockRUN+0x304>)
600047f4:	f102 036c 	add.w	r3, r2, #108	; 0x6c
600047f8:	e853 3f00 	ldrex	r3, [r3]
600047fc:	f023 03c0 	bic.w	r3, r3, #192	; 0xc0
60004800:	f102 006c 	add.w	r0, r2, #108	; 0x6c
60004804:	e840 3100 	strex	r1, r3, [r0]
60004808:	2900      	cmp	r1, #0
6000480a:	d1f3      	bne.n	600047f4 <BOARD_BootClockRUN+0x294>
6000480c:	6993      	ldr	r3, [r2, #24]
6000480e:	4915      	ldr	r1, [pc, #84]	; (60004864 <BOARD_BootClockRUN+0x304>)
60004810:	f023 53e0 	bic.w	r3, r3, #469762048	; 0x1c000000
60004814:	f043 5380 	orr.w	r3, r3, #268435456	; 0x10000000
60004818:	6193      	str	r3, [r2, #24]
6000481a:	6993      	ldr	r3, [r2, #24]
6000481c:	f023 0330 	bic.w	r3, r3, #48	; 0x30
60004820:	f043 0320 	orr.w	r3, r3, #32
60004824:	6193      	str	r3, [r2, #24]
60004826:	f101 0368 	add.w	r3, r1, #104	; 0x68
6000482a:	e853 3f00 	ldrex	r3, [r3]
6000482e:	f423 0340 	bic.w	r3, r3, #12582912	; 0xc00000
60004832:	f101 0068 	add.w	r0, r1, #104	; 0x68
60004836:	e840 3200 	strex	r2, r3, [r0]
6000483a:	2a00      	cmp	r2, #0
6000483c:	d1f3      	bne.n	60004826 <BOARD_BootClockRUN+0x2c6>
6000483e:	6a4b      	ldr	r3, [r1, #36]	; 0x24
60004840:	4a08      	ldr	r2, [pc, #32]	; (60004864 <BOARD_BootClockRUN+0x304>)
60004842:	f043 63c0 	orr.w	r3, r3, #100663296	; 0x6000000
60004846:	624b      	str	r3, [r1, #36]	; 0x24
60004848:	698b      	ldr	r3, [r1, #24]
6000484a:	f423 4340 	bic.w	r3, r3, #49152	; 0xc000
6000484e:	618b      	str	r3, [r1, #24]
60004850:	e00c      	b.n	6000486c <BOARD_BootClockRUN+0x30c>
60004852:	bf00      	nop
60004854:	8000f198 	.word	0x8000f198
60004858:	400d8000 	.word	0x400d8000
6000485c:	8000f19c 	.word	0x8000f19c
60004860:	016e3600 	.word	0x016e3600
60004864:	400fc000 	.word	0x400fc000
60004868:	40080000 	.word	0x40080000
6000486c:	f102 037c 	add.w	r3, r2, #124	; 0x7c
60004870:	e853 3f00 	ldrex	r3, [r3]
60004874:	f423 2340 	bic.w	r3, r3, #786432	; 0xc0000
60004878:	f102 007c 	add.w	r0, r2, #124	; 0x7c
6000487c:	e840 3100 	strex	r1, r3, [r0]
60004880:	2900      	cmp	r1, #0
60004882:	d1f3      	bne.n	6000486c <BOARD_BootClockRUN+0x30c>
60004884:	6a93      	ldr	r3, [r2, #40]	; 0x28
60004886:	49bf      	ldr	r1, [pc, #764]	; (60004b84 <BOARD_BootClockRUN+0x624>)
60004888:	f423 73e0 	bic.w	r3, r3, #448	; 0x1c0
6000488c:	f043 03c0 	orr.w	r3, r3, #192	; 0xc0
60004890:	6293      	str	r3, [r2, #40]	; 0x28
60004892:	6a93      	ldr	r3, [r2, #40]	; 0x28
60004894:	f023 033f 	bic.w	r3, r3, #63	; 0x3f
60004898:	f043 0301 	orr.w	r3, r3, #1
6000489c:	6293      	str	r3, [r2, #40]	; 0x28
6000489e:	69d3      	ldr	r3, [r2, #28]
600048a0:	f423 6340 	bic.w	r3, r3, #3072	; 0xc00
600048a4:	61d3      	str	r3, [r2, #28]
600048a6:	f101 037c 	add.w	r3, r1, #124	; 0x7c
600048aa:	e853 3f00 	ldrex	r3, [r3]
600048ae:	f423 1340 	bic.w	r3, r3, #3145728	; 0x300000
600048b2:	f101 007c 	add.w	r0, r1, #124	; 0x7c
600048b6:	e840 3200 	strex	r2, r3, [r0]
600048ba:	2a00      	cmp	r2, #0
600048bc:	d1f3      	bne.n	600048a6 <BOARD_BootClockRUN+0x346>
600048be:	6acb      	ldr	r3, [r1, #44]	; 0x2c
600048c0:	4ab0      	ldr	r2, [pc, #704]	; (60004b84 <BOARD_BootClockRUN+0x624>)
600048c2:	f423 73e0 	bic.w	r3, r3, #448	; 0x1c0
600048c6:	f043 03c0 	orr.w	r3, r3, #192	; 0xc0
600048ca:	62cb      	str	r3, [r1, #44]	; 0x2c
600048cc:	6acb      	ldr	r3, [r1, #44]	; 0x2c
600048ce:	f023 033f 	bic.w	r3, r3, #63	; 0x3f
600048d2:	f043 0301 	orr.w	r3, r3, #1
600048d6:	62cb      	str	r3, [r1, #44]	; 0x2c
600048d8:	69cb      	ldr	r3, [r1, #28]
600048da:	f423 5340 	bic.w	r3, r3, #12288	; 0x3000
600048de:	61cb      	str	r3, [r1, #28]
600048e0:	f102 037c 	add.w	r3, r2, #124	; 0x7c
600048e4:	e853 3f00 	ldrex	r3, [r3]
600048e8:	f423 0340 	bic.w	r3, r3, #12582912	; 0xc00000
600048ec:	f102 007c 	add.w	r0, r2, #124	; 0x7c
600048f0:	e840 3100 	strex	r1, r3, [r0]
600048f4:	2900      	cmp	r1, #0
600048f6:	d1f3      	bne.n	600048e0 <BOARD_BootClockRUN+0x380>
600048f8:	6a93      	ldr	r3, [r2, #40]	; 0x28
600048fa:	49a2      	ldr	r1, [pc, #648]	; (60004b84 <BOARD_BootClockRUN+0x624>)
600048fc:	f023 73e0 	bic.w	r3, r3, #29360128	; 0x1c00000
60004900:	f443 0340 	orr.w	r3, r3, #12582912	; 0xc00000
60004904:	6293      	str	r3, [r2, #40]	; 0x28
60004906:	6a93      	ldr	r3, [r2, #40]	; 0x28
60004908:	f423 137c 	bic.w	r3, r3, #4128768	; 0x3f0000
6000490c:	f443 3380 	orr.w	r3, r3, #65536	; 0x10000
60004910:	6293      	str	r3, [r2, #40]	; 0x28
60004912:	69d3      	ldr	r3, [r2, #28]
60004914:	f423 4340 	bic.w	r3, r3, #49152	; 0xc000
60004918:	61d3      	str	r3, [r2, #28]
6000491a:	f101 0370 	add.w	r3, r1, #112	; 0x70
6000491e:	e853 3f00 	ldrex	r3, [r3]
60004922:	f023 03c0 	bic.w	r3, r3, #192	; 0xc0
60004926:	f101 0070 	add.w	r0, r1, #112	; 0x70
6000492a:	e840 3200 	strex	r2, r3, [r0]
6000492e:	2a00      	cmp	r2, #0
60004930:	d1f3      	bne.n	6000491a <BOARD_BootClockRUN+0x3ba>
60004932:	4a94      	ldr	r2, [pc, #592]	; (60004b84 <BOARD_BootClockRUN+0x624>)
60004934:	f102 0370 	add.w	r3, r2, #112	; 0x70
60004938:	e853 3f00 	ldrex	r3, [r3]
6000493c:	f423 7340 	bic.w	r3, r3, #768	; 0x300
60004940:	f102 0070 	add.w	r0, r2, #112	; 0x70
60004944:	e840 3100 	strex	r1, r3, [r0]
60004948:	2900      	cmp	r1, #0
6000494a:	d1f3      	bne.n	60004934 <BOARD_BootClockRUN+0x3d4>
6000494c:	4a8d      	ldr	r2, [pc, #564]	; (60004b84 <BOARD_BootClockRUN+0x624>)
6000494e:	f102 0370 	add.w	r3, r2, #112	; 0x70
60004952:	e853 3f00 	ldrex	r3, [r3]
60004956:	f423 6340 	bic.w	r3, r3, #3072	; 0xc00
6000495a:	f102 0070 	add.w	r0, r2, #112	; 0x70
6000495e:	e840 3100 	strex	r1, r3, [r0]
60004962:	2900      	cmp	r1, #0
60004964:	d1f3      	bne.n	6000494e <BOARD_BootClockRUN+0x3ee>
60004966:	6b93      	ldr	r3, [r2, #56]	; 0x38
60004968:	4986      	ldr	r1, [pc, #536]	; (60004b84 <BOARD_BootClockRUN+0x624>)
6000496a:	f023 73fc 	bic.w	r3, r3, #33030144	; 0x1f80000
6000496e:	6393      	str	r3, [r2, #56]	; 0x38
60004970:	6b93      	ldr	r3, [r2, #56]	; 0x38
60004972:	f423 2380 	bic.w	r3, r3, #262144	; 0x40000
60004976:	6393      	str	r3, [r2, #56]	; 0x38
60004978:	f101 0368 	add.w	r3, r1, #104	; 0x68
6000497c:	e853 3f00 	ldrex	r3, [r3]
60004980:	f423 4340 	bic.w	r3, r3, #49152	; 0xc000
60004984:	f101 0068 	add.w	r0, r1, #104	; 0x68
60004988:	e840 3200 	strex	r2, r3, [r0]
6000498c:	2a00      	cmp	r2, #0
6000498e:	d1f3      	bne.n	60004978 <BOARD_BootClockRUN+0x418>
60004990:	4a7c      	ldr	r2, [pc, #496]	; (60004b84 <BOARD_BootClockRUN+0x624>)
60004992:	f102 0368 	add.w	r3, r2, #104	; 0x68
60004996:	e853 3f00 	ldrex	r3, [r3]
6000499a:	f423 2340 	bic.w	r3, r3, #786432	; 0xc0000
6000499e:	f102 0068 	add.w	r0, r2, #104	; 0x68
600049a2:	e840 3100 	strex	r1, r3, [r0]
600049a6:	2900      	cmp	r1, #0
600049a8:	d1f3      	bne.n	60004992 <BOARD_BootClockRUN+0x432>
600049aa:	4a76      	ldr	r2, [pc, #472]	; (60004b84 <BOARD_BootClockRUN+0x624>)
600049ac:	f102 0368 	add.w	r3, r2, #104	; 0x68
600049b0:	e853 3f00 	ldrex	r3, [r3]
600049b4:	f423 3340 	bic.w	r3, r3, #196608	; 0x30000
600049b8:	f102 0068 	add.w	r0, r2, #104	; 0x68
600049bc:	e840 3100 	strex	r1, r3, [r0]
600049c0:	2900      	cmp	r1, #0
600049c2:	d1f3      	bne.n	600049ac <BOARD_BootClockRUN+0x44c>
600049c4:	4a6f      	ldr	r2, [pc, #444]	; (60004b84 <BOARD_BootClockRUN+0x624>)
600049c6:	f102 0368 	add.w	r3, r2, #104	; 0x68
600049ca:	e853 3f00 	ldrex	r3, [r3]
600049ce:	f423 1340 	bic.w	r3, r3, #3145728	; 0x300000
600049d2:	f102 0068 	add.w	r0, r2, #104	; 0x68
600049d6:	e840 3100 	strex	r1, r3, [r0]
600049da:	2900      	cmp	r1, #0
600049dc:	d1f3      	bne.n	600049c6 <BOARD_BootClockRUN+0x466>
600049de:	6a13      	ldr	r3, [r2, #32]
600049e0:	4968      	ldr	r1, [pc, #416]	; (60004b84 <BOARD_BootClockRUN+0x624>)
600049e2:	f023 03fc 	bic.w	r3, r3, #252	; 0xfc
600049e6:	f043 0304 	orr.w	r3, r3, #4
600049ea:	6213      	str	r3, [r2, #32]
600049ec:	6a13      	ldr	r3, [r2, #32]
600049ee:	f423 7340 	bic.w	r3, r3, #768	; 0x300
600049f2:	f443 7300 	orr.w	r3, r3, #512	; 0x200
600049f6:	6213      	str	r3, [r2, #32]
600049f8:	f101 037c 	add.w	r3, r1, #124	; 0x7c
600049fc:	e853 3f00 	ldrex	r3, [r3]
60004a00:	f023 7340 	bic.w	r3, r3, #50331648	; 0x3000000
60004a04:	f101 007c 	add.w	r0, r1, #124	; 0x7c
60004a08:	e840 3200 	strex	r2, r3, [r0]
60004a0c:	2a00      	cmp	r2, #0
60004a0e:	d1f3      	bne.n	600049f8 <BOARD_BootClockRUN+0x498>
60004a10:	4a5c      	ldr	r2, [pc, #368]	; (60004b84 <BOARD_BootClockRUN+0x624>)
60004a12:	f102 0368 	add.w	r3, r2, #104	; 0x68
60004a16:	e853 3f00 	ldrex	r3, [r3]
60004a1a:	f023 5340 	bic.w	r3, r3, #805306368	; 0x30000000
60004a1e:	f102 0068 	add.w	r0, r2, #104	; 0x68
60004a22:	e840 3100 	strex	r1, r3, [r0]
60004a26:	2900      	cmp	r1, #0
60004a28:	d1f3      	bne.n	60004a12 <BOARD_BootClockRUN+0x4b2>
60004a2a:	4a56      	ldr	r2, [pc, #344]	; (60004b84 <BOARD_BootClockRUN+0x624>)
60004a2c:	f102 0368 	add.w	r3, r2, #104	; 0x68
60004a30:	e853 3f00 	ldrex	r3, [r3]
60004a34:	f423 5340 	bic.w	r3, r3, #12288	; 0x3000
60004a38:	f102 0068 	add.w	r0, r2, #104	; 0x68
60004a3c:	e840 3100 	strex	r1, r3, [r0]
60004a40:	2900      	cmp	r1, #0
60004a42:	d1f3      	bne.n	60004a2c <BOARD_BootClockRUN+0x4cc>
60004a44:	4a4f      	ldr	r2, [pc, #316]	; (60004b84 <BOARD_BootClockRUN+0x624>)
60004a46:	f102 036c 	add.w	r3, r2, #108	; 0x6c
60004a4a:	e853 3f00 	ldrex	r3, [r3]
60004a4e:	f023 7340 	bic.w	r3, r3, #50331648	; 0x3000000
60004a52:	f102 006c 	add.w	r0, r2, #108	; 0x6c
60004a56:	e840 3100 	strex	r1, r3, [r0]
60004a5a:	2900      	cmp	r1, #0
60004a5c:	d1f3      	bne.n	60004a46 <BOARD_BootClockRUN+0x4e6>
60004a5e:	4a49      	ldr	r2, [pc, #292]	; (60004b84 <BOARD_BootClockRUN+0x624>)
60004a60:	f102 0374 	add.w	r3, r2, #116	; 0x74
60004a64:	e853 3f00 	ldrex	r3, [r3]
60004a68:	f023 030c 	bic.w	r3, r3, #12
60004a6c:	f102 0074 	add.w	r0, r2, #116	; 0x74
60004a70:	e840 3100 	strex	r1, r3, [r0]
60004a74:	2900      	cmp	r1, #0
60004a76:	d1f3      	bne.n	60004a60 <BOARD_BootClockRUN+0x500>
60004a78:	4a42      	ldr	r2, [pc, #264]	; (60004b84 <BOARD_BootClockRUN+0x624>)
60004a7a:	f102 0374 	add.w	r3, r2, #116	; 0x74
60004a7e:	e853 3f00 	ldrex	r3, [r3]
60004a82:	f023 03c0 	bic.w	r3, r3, #192	; 0xc0
60004a86:	f102 0074 	add.w	r0, r2, #116	; 0x74
60004a8a:	e840 3100 	strex	r1, r3, [r0]
60004a8e:	2900      	cmp	r1, #0
60004a90:	d1f3      	bne.n	60004a7a <BOARD_BootClockRUN+0x51a>
60004a92:	4a3c      	ldr	r2, [pc, #240]	; (60004b84 <BOARD_BootClockRUN+0x624>)
60004a94:	f102 037c 	add.w	r3, r2, #124	; 0x7c
60004a98:	e853 3f00 	ldrex	r3, [r3]
60004a9c:	f023 6340 	bic.w	r3, r3, #201326592	; 0xc000000
60004aa0:	f102 007c 	add.w	r0, r2, #124	; 0x7c
60004aa4:	e840 3100 	strex	r1, r3, [r0]
60004aa8:	2900      	cmp	r1, #0
60004aaa:	d1f3      	bne.n	60004a94 <BOARD_BootClockRUN+0x534>
60004aac:	4a35      	ldr	r2, [pc, #212]	; (60004b84 <BOARD_BootClockRUN+0x624>)
60004aae:	f102 0380 	add.w	r3, r2, #128	; 0x80
60004ab2:	e853 3f00 	ldrex	r3, [r3]
60004ab6:	f423 4340 	bic.w	r3, r3, #49152	; 0xc000
60004aba:	f102 0080 	add.w	r0, r2, #128	; 0x80
60004abe:	e840 3100 	strex	r1, r3, [r0]
60004ac2:	2900      	cmp	r1, #0
60004ac4:	d1f3      	bne.n	60004aae <BOARD_BootClockRUN+0x54e>
60004ac6:	6a53      	ldr	r3, [r2, #36]	; 0x24
60004ac8:	492e      	ldr	r1, [pc, #184]	; (60004b84 <BOARD_BootClockRUN+0x624>)
60004aca:	f023 033f 	bic.w	r3, r3, #63	; 0x3f
60004ace:	6253      	str	r3, [r2, #36]	; 0x24
60004ad0:	6a53      	ldr	r3, [r2, #36]	; 0x24
60004ad2:	f023 0340 	bic.w	r3, r3, #64	; 0x40
60004ad6:	6253      	str	r3, [r2, #36]	; 0x24
60004ad8:	f101 0374 	add.w	r3, r1, #116	; 0x74
60004adc:	e853 3f00 	ldrex	r3, [r3]
60004ae0:	f423 6340 	bic.w	r3, r3, #3072	; 0xc00
60004ae4:	f101 0074 	add.w	r0, r1, #116	; 0x74
60004ae8:	e840 3200 	strex	r2, r3, [r0]
60004aec:	2a00      	cmp	r2, #0
60004aee:	d1f3      	bne.n	60004ad8 <BOARD_BootClockRUN+0x578>
60004af0:	6b8b      	ldr	r3, [r1, #56]	; 0x38
60004af2:	4a24      	ldr	r2, [pc, #144]	; (60004b84 <BOARD_BootClockRUN+0x624>)
60004af4:	f423 43e0 	bic.w	r3, r3, #28672	; 0x7000
60004af8:	f443 5380 	orr.w	r3, r3, #4096	; 0x1000
60004afc:	638b      	str	r3, [r1, #56]	; 0x38
60004afe:	698b      	ldr	r3, [r1, #24]
60004b00:	f023 7360 	bic.w	r3, r3, #58720256	; 0x3800000
60004b04:	f043 73c0 	orr.w	r3, r3, #25165824	; 0x1800000
60004b08:	618b      	str	r3, [r1, #24]
60004b0a:	6b8b      	ldr	r3, [r1, #56]	; 0x38
60004b0c:	f423 3360 	bic.w	r3, r3, #229376	; 0x38000
60004b10:	f443 3320 	orr.w	r3, r3, #163840	; 0x28000
60004b14:	638b      	str	r3, [r1, #56]	; 0x38
60004b16:	f102 037c 	add.w	r3, r2, #124	; 0x7c
60004b1a:	e853 3f00 	ldrex	r3, [r3]
60004b1e:	f423 4340 	bic.w	r3, r3, #49152	; 0xc000
60004b22:	f102 007c 	add.w	r0, r2, #124	; 0x7c
60004b26:	e840 3100 	strex	r1, r3, [r0]
60004b2a:	2900      	cmp	r1, #0
60004b2c:	d1f3      	bne.n	60004b16 <BOARD_BootClockRUN+0x5b6>
60004b2e:	6b13      	ldr	r3, [r2, #48]	; 0x30
60004b30:	4914      	ldr	r1, [pc, #80]	; (60004b84 <BOARD_BootClockRUN+0x624>)
60004b32:	f023 6360 	bic.w	r3, r3, #234881024	; 0xe000000
60004b36:	f043 7300 	orr.w	r3, r3, #33554432	; 0x2000000
60004b3a:	6313      	str	r3, [r2, #48]	; 0x30
60004b3c:	6b13      	ldr	r3, [r2, #48]	; 0x30
60004b3e:	f043 73e0 	orr.w	r3, r3, #29360128	; 0x1c00000
60004b42:	6313      	str	r3, [r2, #48]	; 0x30
60004b44:	6b13      	ldr	r3, [r2, #48]	; 0x30
60004b46:	f443 1340 	orr.w	r3, r3, #3145728	; 0x300000
60004b4a:	6313      	str	r3, [r2, #48]	; 0x30
60004b4c:	f101 037c 	add.w	r3, r1, #124	; 0x7c
60004b50:	e853 3f00 	ldrex	r3, [r3]
60004b54:	f023 030c 	bic.w	r3, r3, #12
60004b58:	f101 007c 	add.w	r0, r1, #124	; 0x7c
60004b5c:	e840 3200 	strex	r2, r3, [r0]
60004b60:	2a00      	cmp	r2, #0
60004b62:	d1f3      	bne.n	60004b4c <BOARD_BootClockRUN+0x5ec>
60004b64:	6b0b      	ldr	r3, [r1, #48]	; 0x30
60004b66:	4a07      	ldr	r2, [pc, #28]	; (60004b84 <BOARD_BootClockRUN+0x624>)
60004b68:	f423 43e0 	bic.w	r3, r3, #28672	; 0x7000
60004b6c:	f443 5380 	orr.w	r3, r3, #4096	; 0x1000
60004b70:	630b      	str	r3, [r1, #48]	; 0x30
60004b72:	6b0b      	ldr	r3, [r1, #48]	; 0x30
60004b74:	f443 6360 	orr.w	r3, r3, #3584	; 0xe00
60004b78:	630b      	str	r3, [r1, #48]	; 0x30
60004b7a:	6b0b      	ldr	r3, [r1, #48]	; 0x30
60004b7c:	f443 73c0 	orr.w	r3, r3, #384	; 0x180
60004b80:	630b      	str	r3, [r1, #48]	; 0x30
60004b82:	e001      	b.n	60004b88 <BOARD_BootClockRUN+0x628>
60004b84:	400fc000 	.word	0x400fc000
60004b88:	f102 0374 	add.w	r3, r2, #116	; 0x74
60004b8c:	e853 3f00 	ldrex	r3, [r3]
60004b90:	f023 0303 	bic.w	r3, r3, #3
60004b94:	f102 0174 	add.w	r1, r2, #116	; 0x74
60004b98:	e841 3500 	strex	r5, r3, [r1]
60004b9c:	2d00      	cmp	r5, #0
60004b9e:	d1f3      	bne.n	60004b88 <BOARD_BootClockRUN+0x628>
60004ba0:	6a93      	ldr	r3, [r2, #40]	; 0x28
60004ba2:	486e      	ldr	r0, [pc, #440]	; (60004d5c <BOARD_BootClockRUN+0x7fc>)
60004ba4:	f423 6360 	bic.w	r3, r3, #3584	; 0xe00
60004ba8:	4c6d      	ldr	r4, [pc, #436]	; (60004d60 <BOARD_BootClockRUN+0x800>)
60004baa:	f443 7300 	orr.w	r3, r3, #512	; 0x200
60004bae:	6293      	str	r3, [r2, #40]	; 0x28
60004bb0:	6a93      	ldr	r3, [r2, #40]	; 0x28
60004bb2:	f043 6360 	orr.w	r3, r3, #234881024	; 0xe000000
60004bb6:	6293      	str	r3, [r2, #40]	; 0x28
60004bb8:	6a13      	ldr	r3, [r2, #32]
60004bba:	f443 13c0 	orr.w	r3, r3, #1572864	; 0x180000
60004bbe:	6213      	str	r3, [r2, #32]
60004bc0:	68d3      	ldr	r3, [r2, #12]
60004bc2:	f023 0301 	bic.w	r3, r3, #1
60004bc6:	60d3      	str	r3, [r2, #12]
60004bc8:	f7ff f822 	bl	60003c10 <CLOCK_InitArmPll>
60004bcc:	f7ff f84c 	bl	60003c68 <CLOCK_DeinitAudioPll>
60004bd0:	f44f 3380 	mov.w	r3, #65536	; 0x10000
60004bd4:	2201      	movs	r2, #1
60004bd6:	4963      	ldr	r1, [pc, #396]	; (60004d64 <BOARD_BootClockRUN+0x804>)
60004bd8:	6763      	str	r3, [r4, #116]	; 0x74
60004bda:	f8d4 3170 	ldr.w	r3, [r4, #368]	; 0x170
60004bde:	f423 4300 	bic.w	r3, r3, #32768	; 0x8000
60004be2:	f8c4 3170 	str.w	r3, [r4, #368]	; 0x170
60004be6:	f8d4 3170 	ldr.w	r3, [r4, #368]	; 0x170
60004bea:	f423 0300 	bic.w	r3, r3, #8388608	; 0x800000
60004bee:	f8c4 3170 	str.w	r3, [r4, #368]	; 0x170
60004bf2:	6f23      	ldr	r3, [r4, #112]	; 0x70
60004bf4:	f443 5300 	orr.w	r3, r3, #8192	; 0x2000
60004bf8:	6723      	str	r3, [r4, #112]	; 0x70
60004bfa:	f8d4 30a0 	ldr.w	r3, [r4, #160]	; 0xa0
60004bfe:	f423 5300 	bic.w	r3, r3, #8192	; 0x2000
60004c02:	f8c4 30a0 	str.w	r3, [r4, #160]	; 0xa0
60004c06:	f8d4 30a0 	ldr.w	r3, [r4, #160]	; 0xa0
60004c0a:	f423 33e0 	bic.w	r3, r3, #114688	; 0x1c000
60004c0e:	f443 3380 	orr.w	r3, r3, #65536	; 0x10000
60004c12:	f8c4 30a0 	str.w	r3, [r4, #160]	; 0xa0
60004c16:	f8c4 50b0 	str.w	r5, [r4, #176]	; 0xb0
60004c1a:	f8c4 20c0 	str.w	r2, [r4, #192]	; 0xc0
60004c1e:	f8d4 00a0 	ldr.w	r0, [r4, #160]	; 0xa0
60004c22:	4b51      	ldr	r3, [pc, #324]	; (60004d68 <BOARD_BootClockRUN+0x808>)
60004c24:	f8d4 2170 	ldr.w	r2, [r4, #368]	; 0x170
60004c28:	4001      	ands	r1, r0
60004c2a:	f042 4240 	orr.w	r2, r2, #3221225472	; 0xc0000000
60004c2e:	430b      	orrs	r3, r1
60004c30:	f8c4 2170 	str.w	r2, [r4, #368]	; 0x170
60004c34:	f8c4 30a0 	str.w	r3, [r4, #160]	; 0xa0
60004c38:	f8d4 30a0 	ldr.w	r3, [r4, #160]	; 0xa0
60004c3c:	2b00      	cmp	r3, #0
60004c3e:	dafb      	bge.n	60004c38 <BOARD_BootClockRUN+0x6d8>
60004c40:	f8d4 30a0 	ldr.w	r3, [r4, #160]	; 0xa0
60004c44:	f44f 3580 	mov.w	r5, #65536	; 0x10000
60004c48:	f423 2380 	bic.w	r3, r3, #262144	; 0x40000
60004c4c:	f8c4 30a0 	str.w	r3, [r4, #160]	; 0xa0
60004c50:	f8c4 50a8 	str.w	r5, [r4, #168]	; 0xa8
60004c54:	f7ff f810 	bl	60003c78 <CLOCK_DeinitEnetPll>
60004c58:	f8c4 50e4 	str.w	r5, [r4, #228]	; 0xe4
60004c5c:	f8d4 30e0 	ldr.w	r3, [r4, #224]	; 0xe0
60004c60:	f023 0303 	bic.w	r3, r3, #3
60004c64:	f043 0301 	orr.w	r3, r3, #1
60004c68:	f8c4 30e0 	str.w	r3, [r4, #224]	; 0xe0
60004c6c:	f8d4 30e0 	ldr.w	r3, [r4, #224]	; 0xe0
60004c70:	f443 5300 	orr.w	r3, r3, #8192	; 0x2000
60004c74:	f8c4 30e0 	str.w	r3, [r4, #224]	; 0xe0
60004c78:	f8d4 30e0 	ldr.w	r3, [r4, #224]	; 0xe0
60004c7c:	f443 1300 	orr.w	r3, r3, #2097152	; 0x200000
60004c80:	f8c4 30e0 	str.w	r3, [r4, #224]	; 0xe0
60004c84:	f7fe ffea 	bl	60003c5c <CLOCK_DeinitUsb2Pll>
60004c88:	6265      	str	r5, [r4, #36]	; 0x24
60004c8a:	6a22      	ldr	r2, [r4, #32]
60004c8c:	4b37      	ldr	r3, [pc, #220]	; (60004d6c <BOARD_BootClockRUN+0x80c>)
60004c8e:	f442 5200 	orr.w	r2, r2, #8192	; 0x2000
60004c92:	6222      	str	r2, [r4, #32]
60004c94:	699a      	ldr	r2, [r3, #24]
60004c96:	f442 2240 	orr.w	r2, r2, #786432	; 0xc0000
60004c9a:	619a      	str	r2, [r3, #24]
60004c9c:	695a      	ldr	r2, [r3, #20]
60004c9e:	f022 7200 	bic.w	r2, r2, #33554432	; 0x2000000
60004ca2:	615a      	str	r2, [r3, #20]
60004ca4:	6c9a      	ldr	r2, [r3, #72]	; 0x48
60004ca6:	0692      	lsls	r2, r2, #26
60004ca8:	d4fc      	bmi.n	60004ca4 <BOARD_BootClockRUN+0x744>
60004caa:	6999      	ldr	r1, [r3, #24]
60004cac:	482c      	ldr	r0, [pc, #176]	; (60004d60 <BOARD_BootClockRUN+0x800>)
60004cae:	f421 5140 	bic.w	r1, r1, #12288	; 0x3000
60004cb2:	4a2f      	ldr	r2, [pc, #188]	; (60004d70 <BOARD_BootClockRUN+0x810>)
60004cb4:	4c2f      	ldr	r4, [pc, #188]	; (60004d74 <BOARD_BootClockRUN+0x814>)
60004cb6:	6199      	str	r1, [r3, #24]
60004cb8:	69d9      	ldr	r1, [r3, #28]
60004cba:	f021 0140 	bic.w	r1, r1, #64	; 0x40
60004cbe:	61d9      	str	r1, [r3, #28]
60004cc0:	f8d0 1160 	ldr.w	r1, [r0, #352]	; 0x160
60004cc4:	f021 011f 	bic.w	r1, r1, #31
60004cc8:	f8c0 1160 	str.w	r1, [r0, #352]	; 0x160
60004ccc:	6e19      	ldr	r1, [r3, #96]	; 0x60
60004cce:	482a      	ldr	r0, [pc, #168]	; (60004d78 <BOARD_BootClockRUN+0x818>)
60004cd0:	f021 0170 	bic.w	r1, r1, #112	; 0x70
60004cd4:	6619      	str	r1, [r3, #96]	; 0x60
60004cd6:	6e19      	ldr	r1, [r3, #96]	; 0x60
60004cd8:	f021 010f 	bic.w	r1, r1, #15
60004cdc:	f041 0101 	orr.w	r1, r1, #1
60004ce0:	6619      	str	r1, [r3, #96]	; 0x60
60004ce2:	6e19      	ldr	r1, [r3, #96]	; 0x60
60004ce4:	f421 0160 	bic.w	r1, r1, #14680064	; 0xe00000
60004ce8:	6619      	str	r1, [r3, #96]	; 0x60
60004cea:	6e19      	ldr	r1, [r3, #96]	; 0x60
60004cec:	f421 11f8 	bic.w	r1, r1, #2031616	; 0x1f0000
60004cf0:	f441 1190 	orr.w	r1, r1, #1179648	; 0x120000
60004cf4:	6619      	str	r1, [r3, #96]	; 0x60
60004cf6:	6e19      	ldr	r1, [r3, #96]	; 0x60
60004cf8:	f421 7180 	bic.w	r1, r1, #256	; 0x100
60004cfc:	6619      	str	r1, [r3, #96]	; 0x60
60004cfe:	6e19      	ldr	r1, [r3, #96]	; 0x60
60004d00:	f021 0180 	bic.w	r1, r1, #128	; 0x80
60004d04:	6619      	str	r1, [r3, #96]	; 0x60
60004d06:	6e19      	ldr	r1, [r3, #96]	; 0x60
60004d08:	f021 7180 	bic.w	r1, r1, #16777216	; 0x1000000
60004d0c:	6619      	str	r1, [r3, #96]	; 0x60
60004d0e:	6853      	ldr	r3, [r2, #4]
60004d10:	491a      	ldr	r1, [pc, #104]	; (60004d7c <BOARD_BootClockRUN+0x81c>)
60004d12:	f023 0307 	bic.w	r3, r3, #7
60004d16:	6053      	str	r3, [r2, #4]
60004d18:	6853      	ldr	r3, [r2, #4]
60004d1a:	f023 0338 	bic.w	r3, r3, #56	; 0x38
60004d1e:	6053      	str	r3, [r2, #4]
60004d20:	6853      	ldr	r3, [r2, #4]
60004d22:	f023 03c0 	bic.w	r3, r3, #192	; 0xc0
60004d26:	6053      	str	r3, [r2, #4]
60004d28:	6853      	ldr	r3, [r2, #4]
60004d2a:	f423 7340 	bic.w	r3, r3, #768	; 0x300
60004d2e:	6053      	str	r3, [r2, #4]
60004d30:	6853      	ldr	r3, [r2, #4]
60004d32:	f423 6340 	bic.w	r3, r3, #3072	; 0xc00
60004d36:	6053      	str	r3, [r2, #4]
60004d38:	6893      	ldr	r3, [r2, #8]
60004d3a:	401c      	ands	r4, r3
60004d3c:	6094      	str	r4, [r2, #8]
60004d3e:	6853      	ldr	r3, [r2, #4]
60004d40:	f423 5300 	bic.w	r3, r3, #8192	; 0x2000
60004d44:	6053      	str	r3, [r2, #4]
60004d46:	6953      	ldr	r3, [r2, #20]
60004d48:	f023 5380 	bic.w	r3, r3, #268435456	; 0x10000000
60004d4c:	6153      	str	r3, [r2, #20]
60004d4e:	6953      	ldr	r3, [r2, #20]
60004d50:	f023 5300 	bic.w	r3, r3, #536870912	; 0x20000000
60004d54:	6153      	str	r3, [r2, #20]
60004d56:	6001      	str	r1, [r0, #0]
60004d58:	bd38      	pop	{r3, r4, r5, pc}
60004d5a:	bf00      	nop
60004d5c:	60006dd4 	.word	0x60006dd4
60004d60:	400d8000 	.word	0x400d8000
60004d64:	ffffcf80 	.word	0xffffcf80
60004d68:	0008201f 	.word	0x0008201f
60004d6c:	400fc000 	.word	0x400fc000
60004d70:	400ac000 	.word	0x400ac000
60004d74:	fb00ffff 	.word	0xfb00ffff
60004d78:	80006a48 	.word	0x80006a48
60004d7c:	23c34600 	.word	0x23c34600

60004d80 <BOARD_InitBootClocks>:
60004d80:	f7ff bbee 	b.w	60004560 <BOARD_BootClockRUN>

60004d84 <BOARD_InitBootPeripherals>:
60004d84:	4770      	bx	lr
60004d86:	bf00      	nop

60004d88 <BOARD_InitBootPins>:
60004d88:	4a0e      	ldr	r2, [pc, #56]	; (60004dc4 <BOARD_InitBootPins+0x3c>)
60004d8a:	f102 0378 	add.w	r3, r2, #120	; 0x78
60004d8e:	e853 3f00 	ldrex	r3, [r3]
60004d92:	f043 030c 	orr.w	r3, r3, #12
60004d96:	f102 0078 	add.w	r0, r2, #120	; 0x78
60004d9a:	e840 3100 	strex	r1, r3, [r0]
60004d9e:	2900      	cmp	r1, #0
60004da0:	d1f3      	bne.n	60004d8a <BOARD_InitBootPins+0x2>
60004da2:	4b09      	ldr	r3, [pc, #36]	; (60004dc8 <BOARD_InitBootPins+0x40>)
60004da4:	2102      	movs	r1, #2
60004da6:	f241 02b0 	movw	r2, #4272	; 0x10b0
60004daa:	f8c3 10ec 	str.w	r1, [r3, #236]	; 0xec
60004dae:	f8c3 10f0 	str.w	r1, [r3, #240]	; 0xf0
60004db2:	f8c3 1170 	str.w	r1, [r3, #368]	; 0x170
60004db6:	f8c3 22dc 	str.w	r2, [r3, #732]	; 0x2dc
60004dba:	f8c3 22e0 	str.w	r2, [r3, #736]	; 0x2e0
60004dbe:	f8c3 2360 	str.w	r2, [r3, #864]	; 0x360
60004dc2:	4770      	bx	lr
60004dc4:	400fc000 	.word	0x400fc000
60004dc8:	401f8000 	.word	0x401f8000

60004dcc <lenet_mnist>:
60004dcc:	f008 fd34 	bl	6000d838 <_image_end>
60004dd0:	4616      	mov	r6, r2
60004dd2:	4604      	mov	r4, r0
60004dd4:	f100 02c0 	add.w	r2, r0, #192	; 0xc0
60004dd8:	4630      	mov	r0, r6
60004dda:	4623      	mov	r3, r4
60004ddc:	460d      	mov	r5, r1
60004dde:	f000 f821 	bl	60004e24 <libjit_conv2d_f_0_specialized>
60004de2:	f506 47c4 	add.w	r7, r6, #25088	; 0x6200
60004de6:	4630      	mov	r0, r6
60004de8:	4639      	mov	r1, r7
60004dea:	f000 fac1 	bl	60005370 <libjit_max_pool_f_1_specialized>
60004dee:	f504 6280 	add.w	r2, r4, #1024	; 0x400
60004df2:	f104 0340 	add.w	r3, r4, #64	; 0x40
60004df6:	4630      	mov	r0, r6
60004df8:	4639      	mov	r1, r7
60004dfa:	f000 fc33 	bl	60005664 <libjit_conv2d_f_2_specialized>
60004dfe:	f506 5744 	add.w	r7, r6, #12544	; 0x3100
60004e02:	4630      	mov	r0, r6
60004e04:	4639      	mov	r1, r7
60004e06:	f001 f83f 	bl	60005e88 <libjit_max_pool_f_3_specialized>
60004e0a:	f505 6044 	add.w	r0, r5, #3136	; 0xc40
60004e0e:	f504 5258 	add.w	r2, r4, #13824	; 0x3600
60004e12:	f104 0380 	add.w	r3, r4, #128	; 0x80
60004e16:	4639      	mov	r1, r7
60004e18:	f001 f9cc 	bl	600061b4 <libjit_fc_f_4_specialized>
60004e1c:	2000      	movs	r0, #0
60004e1e:	b001      	add	sp, #4
60004e20:	bdf0      	pop	{r4, r5, r6, r7, pc}
60004e22:	bf00      	nop

60004e24 <libjit_conv2d_f_0_specialized>:
60004e24:	e92d 4ff0 	stmdb	sp!, {r4, r5, r6, r7, r8, r9, sl, fp, lr}
60004e28:	b094      	sub	sp, #80	; 0x50
60004e2a:	f04f 0800 	mov.w	r8, #0
60004e2e:	f04f 0c1c 	mov.w	ip, #28
60004e32:	f04f 0e00 	mov.w	lr, #0
60004e36:	9200      	str	r2, [sp, #0]
60004e38:	910a      	str	r1, [sp, #40]	; 0x28
60004e3a:	bf00      	nop
60004e3c:	fba8 650c 	umull	r6, r5, r8, ip
60004e40:	2500      	movs	r5, #0
60004e42:	2400      	movs	r4, #0
60004e44:	19a9      	adds	r1, r5, r6
60004e46:	681f      	ldr	r7, [r3, #0]
60004e48:	0149      	lsls	r1, r1, #5
60004e4a:	5047      	str	r7, [r0, r1]
60004e4c:	685f      	ldr	r7, [r3, #4]
60004e4e:	1d0a      	adds	r2, r1, #4
60004e50:	5087      	str	r7, [r0, r2]
60004e52:	689a      	ldr	r2, [r3, #8]
60004e54:	f101 0708 	add.w	r7, r1, #8
60004e58:	51c2      	str	r2, [r0, r7]
60004e5a:	68da      	ldr	r2, [r3, #12]
60004e5c:	f101 070c 	add.w	r7, r1, #12
60004e60:	51c2      	str	r2, [r0, r7]
60004e62:	691a      	ldr	r2, [r3, #16]
60004e64:	f101 0710 	add.w	r7, r1, #16
60004e68:	51c2      	str	r2, [r0, r7]
60004e6a:	695a      	ldr	r2, [r3, #20]
60004e6c:	f101 0714 	add.w	r7, r1, #20
60004e70:	51c2      	str	r2, [r0, r7]
60004e72:	699a      	ldr	r2, [r3, #24]
60004e74:	f101 0718 	add.w	r7, r1, #24
60004e78:	51c2      	str	r2, [r0, r7]
60004e7a:	69da      	ldr	r2, [r3, #28]
60004e7c:	311c      	adds	r1, #28
60004e7e:	5042      	str	r2, [r0, r1]
60004e80:	f045 0101 	orr.w	r1, r5, #1
60004e84:	4431      	add	r1, r6
60004e86:	681a      	ldr	r2, [r3, #0]
60004e88:	0149      	lsls	r1, r1, #5
60004e8a:	5042      	str	r2, [r0, r1]
60004e8c:	685a      	ldr	r2, [r3, #4]
60004e8e:	1d0f      	adds	r7, r1, #4
60004e90:	51c2      	str	r2, [r0, r7]
60004e92:	689a      	ldr	r2, [r3, #8]
60004e94:	f101 0708 	add.w	r7, r1, #8
60004e98:	51c2      	str	r2, [r0, r7]
60004e9a:	68da      	ldr	r2, [r3, #12]
60004e9c:	f101 070c 	add.w	r7, r1, #12
60004ea0:	51c2      	str	r2, [r0, r7]
60004ea2:	691a      	ldr	r2, [r3, #16]
60004ea4:	f101 0710 	add.w	r7, r1, #16
60004ea8:	51c2      	str	r2, [r0, r7]
60004eaa:	695a      	ldr	r2, [r3, #20]
60004eac:	f101 0714 	add.w	r7, r1, #20
60004eb0:	51c2      	str	r2, [r0, r7]
60004eb2:	699a      	ldr	r2, [r3, #24]
60004eb4:	f101 0718 	add.w	r7, r1, #24
60004eb8:	51c2      	str	r2, [r0, r7]
60004eba:	69da      	ldr	r2, [r3, #28]
60004ebc:	311c      	adds	r1, #28
60004ebe:	5042      	str	r2, [r0, r1]
60004ec0:	f045 0102 	orr.w	r1, r5, #2
60004ec4:	4431      	add	r1, r6
60004ec6:	681a      	ldr	r2, [r3, #0]
60004ec8:	0149      	lsls	r1, r1, #5
60004eca:	5042      	str	r2, [r0, r1]
60004ecc:	685a      	ldr	r2, [r3, #4]
60004ece:	1d0f      	adds	r7, r1, #4
60004ed0:	51c2      	str	r2, [r0, r7]
60004ed2:	689a      	ldr	r2, [r3, #8]
60004ed4:	f101 0708 	add.w	r7, r1, #8
60004ed8:	51c2      	str	r2, [r0, r7]
60004eda:	68da      	ldr	r2, [r3, #12]
60004edc:	f101 070c 	add.w	r7, r1, #12
60004ee0:	51c2      	str	r2, [r0, r7]
60004ee2:	691a      	ldr	r2, [r3, #16]
60004ee4:	f101 0710 	add.w	r7, r1, #16
60004ee8:	51c2      	str	r2, [r0, r7]
60004eea:	695a      	ldr	r2, [r3, #20]
60004eec:	f101 0714 	add.w	r7, r1, #20
60004ef0:	51c2      	str	r2, [r0, r7]
60004ef2:	699a      	ldr	r2, [r3, #24]
60004ef4:	f101 0718 	add.w	r7, r1, #24
60004ef8:	51c2      	str	r2, [r0, r7]
60004efa:	69da      	ldr	r2, [r3, #28]
60004efc:	311c      	adds	r1, #28
60004efe:	5042      	str	r2, [r0, r1]
60004f00:	f045 0103 	orr.w	r1, r5, #3
60004f04:	4431      	add	r1, r6
60004f06:	681a      	ldr	r2, [r3, #0]
60004f08:	0149      	lsls	r1, r1, #5
60004f0a:	5042      	str	r2, [r0, r1]
60004f0c:	685a      	ldr	r2, [r3, #4]
60004f0e:	1d0f      	adds	r7, r1, #4
60004f10:	51c2      	str	r2, [r0, r7]
60004f12:	689a      	ldr	r2, [r3, #8]
60004f14:	f101 0708 	add.w	r7, r1, #8
60004f18:	51c2      	str	r2, [r0, r7]
60004f1a:	68da      	ldr	r2, [r3, #12]
60004f1c:	f101 070c 	add.w	r7, r1, #12
60004f20:	51c2      	str	r2, [r0, r7]
60004f22:	691a      	ldr	r2, [r3, #16]
60004f24:	f101 0710 	add.w	r7, r1, #16
60004f28:	51c2      	str	r2, [r0, r7]
60004f2a:	695a      	ldr	r2, [r3, #20]
60004f2c:	f101 0714 	add.w	r7, r1, #20
60004f30:	51c2      	str	r2, [r0, r7]
60004f32:	699a      	ldr	r2, [r3, #24]
60004f34:	f101 0718 	add.w	r7, r1, #24
60004f38:	51c2      	str	r2, [r0, r7]
60004f3a:	69da      	ldr	r2, [r3, #28]
60004f3c:	311c      	adds	r1, #28
60004f3e:	5042      	str	r2, [r0, r1]
60004f40:	1d29      	adds	r1, r5, #4
60004f42:	f144 0200 	adc.w	r2, r4, #0
60004f46:	3d18      	subs	r5, #24
60004f48:	f174 0400 	sbcs.w	r4, r4, #0
60004f4c:	460d      	mov	r5, r1
60004f4e:	4614      	mov	r4, r2
60004f50:	f4ff af78 	bcc.w	60004e44 <libjit_conv2d_f_0_specialized+0x20>
60004f54:	f118 0101 	adds.w	r1, r8, #1
60004f58:	f14e 0200 	adc.w	r2, lr, #0
60004f5c:	f1b8 041b 	subs.w	r4, r8, #27
60004f60:	f17e 0700 	sbcs.w	r7, lr, #0
60004f64:	4688      	mov	r8, r1
60004f66:	4696      	mov	lr, r2
60004f68:	f4ff af68 	bcc.w	60004e3c <libjit_conv2d_f_0_specialized+0x18>
60004f6c:	ed9f 0a3a 	vldr	s0, [pc, #232]	; 60005058 <libjit_conv2d_f_0_specialized+0x234>
60004f70:	f04f 0e00 	mov.w	lr, #0
60004f74:	2300      	movs	r3, #0
60004f76:	2200      	movs	r2, #0
60004f78:	e00a      	b.n	60004f90 <libjit_conv2d_f_0_specialized+0x16c>
60004f7a:	bf00      	nop
60004f7c:	1c59      	adds	r1, r3, #1
60004f7e:	f142 0700 	adc.w	r7, r2, #0
60004f82:	3b04      	subs	r3, #4
60004f84:	f172 0300 	sbcs.w	r3, r2, #0
60004f88:	460b      	mov	r3, r1
60004f8a:	463a      	mov	r2, r7
60004f8c:	f080 81ec 	bcs.w	60005368 <libjit_conv2d_f_0_specialized+0x544>
60004f90:	1e99      	subs	r1, r3, #2
60004f92:	9107      	str	r1, [sp, #28]
60004f94:	f162 0100 	sbc.w	r1, r2, #0
60004f98:	9106      	str	r1, [sp, #24]
60004f9a:	2105      	movs	r1, #5
60004f9c:	fba3 7101 	umull	r7, r1, r3, r1
60004fa0:	2500      	movs	r5, #0
60004fa2:	2600      	movs	r6, #0
60004fa4:	9701      	str	r7, [sp, #4]
60004fa6:	e9cd 2302 	strd	r2, r3, [sp, #8]
60004faa:	e00a      	b.n	60004fc2 <libjit_conv2d_f_0_specialized+0x19e>
60004fac:	9b05      	ldr	r3, [sp, #20]
60004fae:	9f04      	ldr	r7, [sp, #16]
60004fb0:	1c5d      	adds	r5, r3, #1
60004fb2:	f147 0600 	adc.w	r6, r7, #0
60004fb6:	3b04      	subs	r3, #4
60004fb8:	f177 0300 	sbcs.w	r3, r7, #0
60004fbc:	e9dd 2302 	ldrd	r2, r3, [sp, #8]
60004fc0:	d2dc      	bcs.n	60004f7c <libjit_conv2d_f_0_specialized+0x158>
60004fc2:	f083 0104 	eor.w	r1, r3, #4
60004fc6:	f085 0304 	eor.w	r3, r5, #4
60004fca:	ea42 0706 	orr.w	r7, r2, r6
60004fce:	4319      	orrs	r1, r3
60004fd0:	4339      	orrs	r1, r7
60004fd2:	fab1 f181 	clz	r1, r1
60004fd6:	094c      	lsrs	r4, r1, #5
60004fd8:	9901      	ldr	r1, [sp, #4]
60004fda:	9a00      	ldr	r2, [sp, #0]
60004fdc:	4429      	add	r1, r5
60004fde:	eb02 0181 	add.w	r1, r2, r1, lsl #2
60004fe2:	f501 7296 	add.w	r2, r1, #300	; 0x12c
60004fe6:	9211      	str	r2, [sp, #68]	; 0x44
60004fe8:	f101 02c8 	add.w	r2, r1, #200	; 0xc8
60004fec:	9210      	str	r2, [sp, #64]	; 0x40
60004fee:	f101 0264 	add.w	r2, r1, #100	; 0x64
60004ff2:	920f      	str	r2, [sp, #60]	; 0x3c
60004ff4:	f501 722f 	add.w	r2, r1, #700	; 0x2bc
60004ff8:	920e      	str	r2, [sp, #56]	; 0x38
60004ffa:	f501 7216 	add.w	r2, r1, #600	; 0x258
60004ffe:	f1b5 0c02 	subs.w	ip, r5, #2
60005002:	920d      	str	r2, [sp, #52]	; 0x34
60005004:	f501 72fa 	add.w	r2, r1, #500	; 0x1f4
60005008:	f166 0800 	sbc.w	r8, r6, #0
6000500c:	920c      	str	r2, [sp, #48]	; 0x30
6000500e:	9112      	str	r1, [sp, #72]	; 0x48
60005010:	f501 71c8 	add.w	r1, r1, #400	; 0x190
60005014:	2300      	movs	r3, #0
60005016:	2200      	movs	r2, #0
60005018:	9604      	str	r6, [sp, #16]
6000501a:	9505      	str	r5, [sp, #20]
6000501c:	910b      	str	r1, [sp, #44]	; 0x2c
6000501e:	e009      	b.n	60005034 <libjit_conv2d_f_0_specialized+0x210>
60005020:	9b09      	ldr	r3, [sp, #36]	; 0x24
60005022:	9d08      	ldr	r5, [sp, #32]
60005024:	1c59      	adds	r1, r3, #1
60005026:	f145 0200 	adc.w	r2, r5, #0
6000502a:	3b1b      	subs	r3, #27
6000502c:	f175 0300 	sbcs.w	r3, r5, #0
60005030:	460b      	mov	r3, r1
60005032:	d2bb      	bcs.n	60004fac <libjit_conv2d_f_0_specialized+0x188>
60005034:	9907      	ldr	r1, [sp, #28]
60005036:	9208      	str	r2, [sp, #32]
60005038:	eb11 0903 	adds.w	r9, r1, r3
6000503c:	9906      	ldr	r1, [sp, #24]
6000503e:	9309      	str	r3, [sp, #36]	; 0x24
60005040:	4151      	adcs	r1, r2
60005042:	221c      	movs	r2, #28
60005044:	fba9 5702 	umull	r5, r7, r9, r2
60005048:	fba3 a702 	umull	sl, r7, r3, r2
6000504c:	f04f 0b00 	mov.w	fp, #0
60005050:	2300      	movs	r3, #0
60005052:	9513      	str	r5, [sp, #76]	; 0x4c
60005054:	e0f2      	b.n	6000523c <libjit_conv2d_f_0_specialized+0x418>
60005056:	bf00      	nop
60005058:	00000000 	.word	0x00000000
6000505c:	9a13      	ldr	r2, [sp, #76]	; 0x4c
6000505e:	9f0a      	ldr	r7, [sp, #40]	; 0x28
60005060:	4432      	add	r2, r6
60005062:	eb07 0282 	add.w	r2, r7, r2, lsl #2
60005066:	ed92 1a00 	vldr	s2, [r2]
6000506a:	9a12      	ldr	r2, [sp, #72]	; 0x48
6000506c:	9f0c      	ldr	r7, [sp, #48]	; 0x30
6000506e:	ed92 2a00 	vldr	s4, [r2]
60005072:	9a11      	ldr	r2, [sp, #68]	; 0x44
60005074:	ee21 7a02 	vmul.f32	s14, s2, s4
60005078:	ed92 4a00 	vldr	s8, [r2]
6000507c:	9a10      	ldr	r2, [sp, #64]	; 0x40
6000507e:	edd7 1a00 	vldr	s3, [r7]
60005082:	ed92 5a00 	vldr	s10, [r2]
60005086:	9a0f      	ldr	r2, [sp, #60]	; 0x3c
60005088:	ee21 5a05 	vmul.f32	s10, s2, s10
6000508c:	ed92 6a00 	vldr	s12, [r2]
60005090:	9a0e      	ldr	r2, [sp, #56]	; 0x38
60005092:	ee21 6a06 	vmul.f32	s12, s2, s12
60005096:	ed92 2a00 	vldr	s4, [r2]
6000509a:	9a0d      	ldr	r2, [sp, #52]	; 0x34
6000509c:	ee21 4a04 	vmul.f32	s8, s2, s8
600050a0:	ed92 3a00 	vldr	s6, [r2]
600050a4:	eb0b 020a 	add.w	r2, fp, sl
600050a8:	eb00 1642 	add.w	r6, r0, r2, lsl #5
600050ac:	edd6 0a00 	vldr	s1, [r6]
600050b0:	ea4f 1e42 	mov.w	lr, r2, lsl #5
600050b4:	ee37 7a20 	vadd.f32	s14, s14, s1
600050b8:	eeb5 7a40 	vcmp.f32	s14, #0.0
600050bc:	eef1 fa10 	vmrs	APSR_nzcv, fpscr
600050c0:	eef0 0a40 	vmov.f32	s1, s0
600050c4:	bfc8      	it	gt
600050c6:	eef0 0a47 	vmovgt.f32	s1, s14
600050ca:	2c00      	cmp	r4, #0
600050cc:	bf18      	it	ne
600050ce:	eeb0 7a60 	vmovne.f32	s14, s1
600050d2:	9f0b      	ldr	r7, [sp, #44]	; 0x2c
600050d4:	f10e 0204 	add.w	r2, lr, #4
600050d8:	4402      	add	r2, r0
600050da:	edd7 0a00 	vldr	s1, [r7]
600050de:	ed86 7a00 	vstr	s14, [r6]
600050e2:	ed92 7a00 	vldr	s14, [r2]
600050e6:	ee21 3a03 	vmul.f32	s6, s2, s6
600050ea:	ee36 6a07 	vadd.f32	s12, s12, s14
600050ee:	eeb5 6a40 	vcmp.f32	s12, #0.0
600050f2:	eef1 fa10 	vmrs	APSR_nzcv, fpscr
600050f6:	eeb0 7a40 	vmov.f32	s14, s0
600050fa:	bfc8      	it	gt
600050fc:	eeb0 7a46 	vmovgt.f32	s14, s12
60005100:	2c00      	cmp	r4, #0
60005102:	bf18      	it	ne
60005104:	eeb0 6a47 	vmovne.f32	s12, s14
60005108:	ed82 6a00 	vstr	s12, [r2]
6000510c:	f10e 0208 	add.w	r2, lr, #8
60005110:	4402      	add	r2, r0
60005112:	ed92 6a00 	vldr	s12, [r2]
60005116:	ee35 5a06 	vadd.f32	s10, s10, s12
6000511a:	eeb5 5a40 	vcmp.f32	s10, #0.0
6000511e:	eef1 fa10 	vmrs	APSR_nzcv, fpscr
60005122:	eeb0 6a40 	vmov.f32	s12, s0
60005126:	bfc8      	it	gt
60005128:	eeb0 6a45 	vmovgt.f32	s12, s10
6000512c:	2c00      	cmp	r4, #0
6000512e:	bf18      	it	ne
60005130:	eeb0 5a46 	vmovne.f32	s10, s12
60005134:	ed82 5a00 	vstr	s10, [r2]
60005138:	f10e 020c 	add.w	r2, lr, #12
6000513c:	4402      	add	r2, r0
6000513e:	ed92 5a00 	vldr	s10, [r2]
60005142:	ee34 4a05 	vadd.f32	s8, s8, s10
60005146:	eeb5 4a40 	vcmp.f32	s8, #0.0
6000514a:	eef1 fa10 	vmrs	APSR_nzcv, fpscr
6000514e:	eeb0 5a40 	vmov.f32	s10, s0
60005152:	bfc8      	it	gt
60005154:	eeb0 5a44 	vmovgt.f32	s10, s8
60005158:	2c00      	cmp	r4, #0
6000515a:	bf18      	it	ne
6000515c:	eeb0 4a45 	vmovne.f32	s8, s10
60005160:	ed82 4a00 	vstr	s8, [r2]
60005164:	f10e 0210 	add.w	r2, lr, #16
60005168:	4402      	add	r2, r0
6000516a:	ed92 4a00 	vldr	s8, [r2]
6000516e:	ee21 5a20 	vmul.f32	s10, s2, s1
60005172:	ee35 4a04 	vadd.f32	s8, s10, s8
60005176:	eeb5 4a40 	vcmp.f32	s8, #0.0
6000517a:	eef1 fa10 	vmrs	APSR_nzcv, fpscr
6000517e:	eeb0 5a40 	vmov.f32	s10, s0
60005182:	bfc8      	it	gt
60005184:	eeb0 5a44 	vmovgt.f32	s10, s8
60005188:	2c00      	cmp	r4, #0
6000518a:	bf18      	it	ne
6000518c:	eeb0 4a45 	vmovne.f32	s8, s10
60005190:	ed82 4a00 	vstr	s8, [r2]
60005194:	f10e 0214 	add.w	r2, lr, #20
60005198:	4402      	add	r2, r0
6000519a:	ed92 4a00 	vldr	s8, [r2]
6000519e:	ee21 5a21 	vmul.f32	s10, s2, s3
600051a2:	ee35 4a04 	vadd.f32	s8, s10, s8
600051a6:	eeb5 4a40 	vcmp.f32	s8, #0.0
600051aa:	eef1 fa10 	vmrs	APSR_nzcv, fpscr
600051ae:	eeb0 5a40 	vmov.f32	s10, s0
600051b2:	bfc8      	it	gt
600051b4:	eeb0 5a44 	vmovgt.f32	s10, s8
600051b8:	2c00      	cmp	r4, #0
600051ba:	bf18      	it	ne
600051bc:	eeb0 4a45 	vmovne.f32	s8, s10
600051c0:	ed82 4a00 	vstr	s8, [r2]
600051c4:	f10e 0218 	add.w	r2, lr, #24
600051c8:	4402      	add	r2, r0
600051ca:	ed92 4a00 	vldr	s8, [r2]
600051ce:	ee21 1a02 	vmul.f32	s2, s2, s4
600051d2:	ee33 3a04 	vadd.f32	s6, s6, s8
600051d6:	eeb5 3a40 	vcmp.f32	s6, #0.0
600051da:	eef1 fa10 	vmrs	APSR_nzcv, fpscr
600051de:	eeb0 4a40 	vmov.f32	s8, s0
600051e2:	bfc8      	it	gt
600051e4:	eeb0 4a43 	vmovgt.f32	s8, s6
600051e8:	2c00      	cmp	r4, #0
600051ea:	bf18      	it	ne
600051ec:	eeb0 3a44 	vmovne.f32	s6, s8
600051f0:	ed82 3a00 	vstr	s6, [r2]
600051f4:	f10e 021c 	add.w	r2, lr, #28
600051f8:	1886      	adds	r6, r0, r2
600051fa:	ed96 3a00 	vldr	s6, [r6]
600051fe:	f04f 0e00 	mov.w	lr, #0
60005202:	ee31 1a03 	vadd.f32	s2, s2, s6
60005206:	eeb5 1a40 	vcmp.f32	s2, #0.0
6000520a:	eef1 fa10 	vmrs	APSR_nzcv, fpscr
6000520e:	eeb0 2a40 	vmov.f32	s4, s0
60005212:	bfc8      	it	gt
60005214:	eeb0 2a41 	vmovgt.f32	s4, s2
60005218:	2c00      	cmp	r4, #0
6000521a:	bf18      	it	ne
6000521c:	eeb0 1a42 	vmovne.f32	s2, s4
60005220:	ed86 1a00 	vstr	s2, [r6]
60005224:	f11b 0201 	adds.w	r2, fp, #1
60005228:	f143 0500 	adc.w	r5, r3, #0
6000522c:	f1bb 071b 	subs.w	r7, fp, #27
60005230:	f173 0300 	sbcs.w	r3, r3, #0
60005234:	4693      	mov	fp, r2
60005236:	462b      	mov	r3, r5
60005238:	f4bf aef2 	bcs.w	60005020 <libjit_conv2d_f_0_specialized+0x1fc>
6000523c:	eb1c 060b 	adds.w	r6, ip, fp
60005240:	eb48 0703 	adc.w	r7, r8, r3
60005244:	f1d6 021b 	rsbs	r2, r6, #27
60005248:	eb7e 0207 	sbcs.w	r2, lr, r7
6000524c:	db0a      	blt.n	60005264 <libjit_conv2d_f_0_specialized+0x440>
6000524e:	f1d9 021b 	rsbs	r2, r9, #27
60005252:	eb7e 0201 	sbcs.w	r2, lr, r1
60005256:	db05      	blt.n	60005264 <libjit_conv2d_f_0_specialized+0x440>
60005258:	ea47 0201 	orr.w	r2, r7, r1
6000525c:	f1b2 3fff 	cmp.w	r2, #4294967295	; 0xffffffff
60005260:	f73f aefc 	bgt.w	6000505c <libjit_conv2d_f_0_specialized+0x238>
60005264:	2c00      	cmp	r4, #0
60005266:	d0dd      	beq.n	60005224 <libjit_conv2d_f_0_specialized+0x400>
60005268:	eb0b 020a 	add.w	r2, fp, sl
6000526c:	eb00 1742 	add.w	r7, r0, r2, lsl #5
60005270:	ed97 1a00 	vldr	s2, [r7]
60005274:	0156      	lsls	r6, r2, #5
60005276:	1d32      	adds	r2, r6, #4
60005278:	eeb5 1a40 	vcmp.f32	s2, #0.0
6000527c:	eeb0 2a40 	vmov.f32	s4, s0
60005280:	4402      	add	r2, r0
60005282:	eef1 fa10 	vmrs	APSR_nzcv, fpscr
60005286:	bfc8      	it	gt
60005288:	eeb0 2a41 	vmovgt.f32	s4, s2
6000528c:	ed92 1a00 	vldr	s2, [r2]
60005290:	ed87 2a00 	vstr	s4, [r7]
60005294:	f106 0708 	add.w	r7, r6, #8
60005298:	eeb5 1a40 	vcmp.f32	s2, #0.0
6000529c:	eeb0 2a40 	vmov.f32	s4, s0
600052a0:	4407      	add	r7, r0
600052a2:	eef1 fa10 	vmrs	APSR_nzcv, fpscr
600052a6:	bfc8      	it	gt
600052a8:	eeb0 2a41 	vmovgt.f32	s4, s2
600052ac:	ed97 1a00 	vldr	s2, [r7]
600052b0:	ed82 2a00 	vstr	s4, [r2]
600052b4:	f106 020c 	add.w	r2, r6, #12
600052b8:	eeb5 1a40 	vcmp.f32	s2, #0.0
600052bc:	eeb0 2a40 	vmov.f32	s4, s0
600052c0:	4402      	add	r2, r0
600052c2:	eef1 fa10 	vmrs	APSR_nzcv, fpscr
600052c6:	bfc8      	it	gt
600052c8:	eeb0 2a41 	vmovgt.f32	s4, s2
600052cc:	ed92 1a00 	vldr	s2, [r2]
600052d0:	ed87 2a00 	vstr	s4, [r7]
600052d4:	f106 0710 	add.w	r7, r6, #16
600052d8:	eeb5 1a40 	vcmp.f32	s2, #0.0
600052dc:	eeb0 2a40 	vmov.f32	s4, s0
600052e0:	4407      	add	r7, r0
600052e2:	eef1 fa10 	vmrs	APSR_nzcv, fpscr
600052e6:	bfc8      	it	gt
600052e8:	eeb0 2a41 	vmovgt.f32	s4, s2
600052ec:	ed97 1a00 	vldr	s2, [r7]
600052f0:	ed82 2a00 	vstr	s4, [r2]
600052f4:	f106 0214 	add.w	r2, r6, #20
600052f8:	eeb5 1a40 	vcmp.f32	s2, #0.0
600052fc:	eeb0 2a40 	vmov.f32	s4, s0
60005300:	4402      	add	r2, r0
60005302:	eef1 fa10 	vmrs	APSR_nzcv, fpscr
60005306:	bfc8      	it	gt
60005308:	eeb0 2a41 	vmovgt.f32	s4, s2
6000530c:	ed92 1a00 	vldr	s2, [r2]
60005310:	ed87 2a00 	vstr	s4, [r7]
60005314:	f106 0718 	add.w	r7, r6, #24
60005318:	eeb5 1a40 	vcmp.f32	s2, #0.0
6000531c:	eeb0 2a40 	vmov.f32	s4, s0
60005320:	4407      	add	r7, r0
60005322:	eef1 fa10 	vmrs	APSR_nzcv, fpscr
60005326:	bfc8      	it	gt
60005328:	eeb0 2a41 	vmovgt.f32	s4, s2
6000532c:	ed97 1a00 	vldr	s2, [r7]
60005330:	ed82 2a00 	vstr	s4, [r2]
60005334:	f106 021c 	add.w	r2, r6, #28
60005338:	eeb5 1a40 	vcmp.f32	s2, #0.0
6000533c:	eeb0 2a40 	vmov.f32	s4, s0
60005340:	1886      	adds	r6, r0, r2
60005342:	eef1 fa10 	vmrs	APSR_nzcv, fpscr
60005346:	bfc8      	it	gt
60005348:	eeb0 2a41 	vmovgt.f32	s4, s2
6000534c:	ed96 3a00 	vldr	s6, [r6]
60005350:	eeb0 1a40 	vmov.f32	s2, s0
60005354:	eeb5 3a40 	vcmp.f32	s6, #0.0
60005358:	ed87 2a00 	vstr	s4, [r7]
6000535c:	eef1 fa10 	vmrs	APSR_nzcv, fpscr
60005360:	bfc8      	it	gt
60005362:	eeb0 1a43 	vmovgt.f32	s2, s6
60005366:	e75b      	b.n	60005220 <libjit_conv2d_f_0_specialized+0x3fc>
60005368:	b014      	add	sp, #80	; 0x50
6000536a:	e8bd 8ff0 	ldmia.w	sp!, {r4, r5, r6, r7, r8, r9, sl, fp, pc}
6000536e:	bf00      	nop

60005370 <libjit_max_pool_f_1_specialized>:
60005370:	e92d 47f0 	stmdb	sp!, {r4, r5, r6, r7, r8, r9, sl, lr}
60005374:	ed9f 0aba 	vldr	s0, [pc, #744]	; 60005660 <libjit_max_pool_f_1_specialized+0x2f0>
60005378:	f04f 0c00 	mov.w	ip, #0
6000537c:	f04f 0e00 	mov.w	lr, #0
60005380:	f04f 0900 	mov.w	r9, #0
60005384:	f04f 0800 	mov.w	r8, #0
60005388:	ebc9 02c9 	rsb	r2, r9, r9, lsl #3
6000538c:	eb00 1ac2 	add.w	sl, r0, r2, lsl #7
60005390:	2500      	movs	r5, #0
60005392:	2400      	movs	r4, #0
60005394:	2600      	movs	r6, #0
60005396:	2700      	movs	r7, #0
60005398:	eb0a 1346 	add.w	r3, sl, r6, lsl #5
6000539c:	ed93 1a00 	vldr	s2, [r3]
600053a0:	ed93 2a08 	vldr	s4, [r3, #32]
600053a4:	ed93 3ae0 	vldr	s6, [r3, #896]	; 0x380
600053a8:	eeb4 1a40 	vcmp.f32	s2, s0
600053ac:	eeb0 5a40 	vmov.f32	s10, s0
600053b0:	ed93 4ae8 	vldr	s8, [r3, #928]	; 0x3a0
600053b4:	eef1 fa10 	vmrs	APSR_nzcv, fpscr
600053b8:	bfc8      	it	gt
600053ba:	eeb0 5a41 	vmovgt.f32	s10, s2
600053be:	eeb4 5a42 	vcmp.f32	s10, s4
600053c2:	eef1 fa10 	vmrs	APSR_nzcv, fpscr
600053c6:	bf48      	it	mi
600053c8:	eeb0 5a42 	vmovmi.f32	s10, s4
600053cc:	eeb4 5a43 	vcmp.f32	s10, s6
600053d0:	eef1 fa10 	vmrs	APSR_nzcv, fpscr
600053d4:	bf48      	it	mi
600053d6:	eeb0 5a43 	vmovmi.f32	s10, s6
600053da:	eeb4 5a44 	vcmp.f32	s10, s8
600053de:	eef1 fa10 	vmrs	APSR_nzcv, fpscr
600053e2:	bf48      	it	mi
600053e4:	eeb0 5a44 	vmovmi.f32	s10, s8
600053e8:	ed81 5a00 	vstr	s10, [r1]
600053ec:	ed93 1a01 	vldr	s2, [r3, #4]
600053f0:	ed93 2a09 	vldr	s4, [r3, #36]	; 0x24
600053f4:	ed93 3ae1 	vldr	s6, [r3, #900]	; 0x384
600053f8:	eeb4 1a40 	vcmp.f32	s2, s0
600053fc:	eeb0 5a40 	vmov.f32	s10, s0
60005400:	ed93 4ae9 	vldr	s8, [r3, #932]	; 0x3a4
60005404:	eef1 fa10 	vmrs	APSR_nzcv, fpscr
60005408:	bfc8      	it	gt
6000540a:	eeb0 5a41 	vmovgt.f32	s10, s2
6000540e:	eeb4 5a42 	vcmp.f32	s10, s4
60005412:	eef1 fa10 	vmrs	APSR_nzcv, fpscr
60005416:	bf48      	it	mi
60005418:	eeb0 5a42 	vmovmi.f32	s10, s4
6000541c:	eeb4 5a43 	vcmp.f32	s10, s6
60005420:	eef1 fa10 	vmrs	APSR_nzcv, fpscr
60005424:	bf48      	it	mi
60005426:	eeb0 5a43 	vmovmi.f32	s10, s6
6000542a:	eeb4 5a44 	vcmp.f32	s10, s8
6000542e:	eef1 fa10 	vmrs	APSR_nzcv, fpscr
60005432:	bf48      	it	mi
60005434:	eeb0 5a44 	vmovmi.f32	s10, s8
60005438:	ed81 5a01 	vstr	s10, [r1, #4]
6000543c:	ed93 1a02 	vldr	s2, [r3, #8]
60005440:	ed93 2a0a 	vldr	s4, [r3, #40]	; 0x28
60005444:	ed93 3ae2 	vldr	s6, [r3, #904]	; 0x388
60005448:	eeb4 1a40 	vcmp.f32	s2, s0
6000544c:	eeb0 5a40 	vmov.f32	s10, s0
60005450:	ed93 4aea 	vldr	s8, [r3, #936]	; 0x3a8
60005454:	eef1 fa10 	vmrs	APSR_nzcv, fpscr
60005458:	bfc8      	it	gt
6000545a:	eeb0 5a41 	vmovgt.f32	s10, s2
6000545e:	eeb4 5a42 	vcmp.f32	s10, s4
60005462:	eef1 fa10 	vmrs	APSR_nzcv, fpscr
60005466:	bf48      	it	mi
60005468:	eeb0 5a42 	vmovmi.f32	s10, s4
6000546c:	eeb4 5a43 	vcmp.f32	s10, s6
60005470:	eef1 fa10 	vmrs	APSR_nzcv, fpscr
60005474:	bf48      	it	mi
60005476:	eeb0 5a43 	vmovmi.f32	s10, s6
6000547a:	eeb4 5a44 	vcmp.f32	s10, s8
6000547e:	eef1 fa10 	vmrs	APSR_nzcv, fpscr
60005482:	bf48      	it	mi
60005484:	eeb0 5a44 	vmovmi.f32	s10, s8
60005488:	ed81 5a02 	vstr	s10, [r1, #8]
6000548c:	ed93 1a03 	vldr	s2, [r3, #12]
60005490:	ed93 2a0b 	vldr	s4, [r3, #44]	; 0x2c
60005494:	ed93 3ae3 	vldr	s6, [r3, #908]	; 0x38c
60005498:	eeb4 1a40 	vcmp.f32	s2, s0
6000549c:	eeb0 5a40 	vmov.f32	s10, s0
600054a0:	ed93 4aeb 	vldr	s8, [r3, #940]	; 0x3ac
600054a4:	eef1 fa10 	vmrs	APSR_nzcv, fpscr
600054a8:	bfc8      	it	gt
600054aa:	eeb0 5a41 	vmovgt.f32	s10, s2
600054ae:	eeb4 5a42 	vcmp.f32	s10, s4
600054b2:	eef1 fa10 	vmrs	APSR_nzcv, fpscr
600054b6:	bf48      	it	mi
600054b8:	eeb0 5a42 	vmovmi.f32	s10, s4
600054bc:	eeb4 5a43 	vcmp.f32	s10, s6
600054c0:	eef1 fa10 	vmrs	APSR_nzcv, fpscr
600054c4:	bf48      	it	mi
600054c6:	eeb0 5a43 	vmovmi.f32	s10, s6
600054ca:	eeb4 5a44 	vcmp.f32	s10, s8
600054ce:	eef1 fa10 	vmrs	APSR_nzcv, fpscr
600054d2:	bf48      	it	mi
600054d4:	eeb0 5a44 	vmovmi.f32	s10, s8
600054d8:	ed81 5a03 	vstr	s10, [r1, #12]
600054dc:	ed93 1a04 	vldr	s2, [r3, #16]
600054e0:	ed93 2a0c 	vldr	s4, [r3, #48]	; 0x30
600054e4:	ed93 3ae4 	vldr	s6, [r3, #912]	; 0x390
600054e8:	eeb4 1a40 	vcmp.f32	s2, s0
600054ec:	eeb0 5a40 	vmov.f32	s10, s0
600054f0:	ed93 4aec 	vldr	s8, [r3, #944]	; 0x3b0
600054f4:	eef1 fa10 	vmrs	APSR_nzcv, fpscr
600054f8:	bfc8      	it	gt
600054fa:	eeb0 5a41 	vmovgt.f32	s10, s2
600054fe:	eeb4 5a42 	vcmp.f32	s10, s4
60005502:	eef1 fa10 	vmrs	APSR_nzcv, fpscr
60005506:	bf48      	it	mi
60005508:	eeb0 5a42 	vmovmi.f32	s10, s4
6000550c:	eeb4 5a43 	vcmp.f32	s10, s6
60005510:	eef1 fa10 	vmrs	APSR_nzcv, fpscr
60005514:	bf48      	it	mi
60005516:	eeb0 5a43 	vmovmi.f32	s10, s6
6000551a:	eeb4 5a44 	vcmp.f32	s10, s8
6000551e:	eef1 fa10 	vmrs	APSR_nzcv, fpscr
60005522:	bf48      	it	mi
60005524:	eeb0 5a44 	vmovmi.f32	s10, s8
60005528:	ed81 5a04 	vstr	s10, [r1, #16]
6000552c:	ed93 1a05 	vldr	s2, [r3, #20]
60005530:	ed93 2a0d 	vldr	s4, [r3, #52]	; 0x34
60005534:	ed93 3ae5 	vldr	s6, [r3, #916]	; 0x394
60005538:	eeb4 1a40 	vcmp.f32	s2, s0
6000553c:	eeb0 5a40 	vmov.f32	s10, s0
60005540:	ed93 4aed 	vldr	s8, [r3, #948]	; 0x3b4
60005544:	eef1 fa10 	vmrs	APSR_nzcv, fpscr
60005548:	bfc8      	it	gt
6000554a:	eeb0 5a41 	vmovgt.f32	s10, s2
6000554e:	eeb4 5a42 	vcmp.f32	s10, s4
60005552:	eef1 fa10 	vmrs	APSR_nzcv, fpscr
60005556:	bf48      	it	mi
60005558:	eeb0 5a42 	vmovmi.f32	s10, s4
6000555c:	eeb4 5a43 	vcmp.f32	s10, s6
60005560:	eef1 fa10 	vmrs	APSR_nzcv, fpscr
60005564:	bf48      	it	mi
60005566:	eeb0 5a43 	vmovmi.f32	s10, s6
6000556a:	eeb4 5a44 	vcmp.f32	s10, s8
6000556e:	eef1 fa10 	vmrs	APSR_nzcv, fpscr
60005572:	bf48      	it	mi
60005574:	eeb0 5a44 	vmovmi.f32	s10, s8
60005578:	ed81 5a05 	vstr	s10, [r1, #20]
6000557c:	ed93 1a06 	vldr	s2, [r3, #24]
60005580:	ed93 2a0e 	vldr	s4, [r3, #56]	; 0x38
60005584:	ed93 3ae6 	vldr	s6, [r3, #920]	; 0x398
60005588:	eeb4 1a40 	vcmp.f32	s2, s0
6000558c:	eeb0 5a40 	vmov.f32	s10, s0
60005590:	ed93 4aee 	vldr	s8, [r3, #952]	; 0x3b8
60005594:	eef1 fa10 	vmrs	APSR_nzcv, fpscr
60005598:	bfc8      	it	gt
6000559a:	eeb0 5a41 	vmovgt.f32	s10, s2
6000559e:	eeb4 5a42 	vcmp.f32	s10, s4
600055a2:	eef1 fa10 	vmrs	APSR_nzcv, fpscr
600055a6:	bf48      	it	mi
600055a8:	eeb0 5a42 	vmovmi.f32	s10, s4
600055ac:	eeb4 5a43 	vcmp.f32	s10, s6
600055b0:	eef1 fa10 	vmrs	APSR_nzcv, fpscr
600055b4:	bf48      	it	mi
600055b6:	eeb0 5a43 	vmovmi.f32	s10, s6
600055ba:	eeb4 5a44 	vcmp.f32	s10, s8
600055be:	eef1 fa10 	vmrs	APSR_nzcv, fpscr
600055c2:	bf48      	it	mi
600055c4:	eeb0 5a44 	vmovmi.f32	s10, s8
600055c8:	ed81 5a06 	vstr	s10, [r1, #24]
600055cc:	ed93 1a07 	vldr	s2, [r3, #28]
600055d0:	ed93 2a0f 	vldr	s4, [r3, #60]	; 0x3c
600055d4:	ed93 3ae7 	vldr	s6, [r3, #924]	; 0x39c
600055d8:	eeb4 1a40 	vcmp.f32	s2, s0
600055dc:	eeb0 5a40 	vmov.f32	s10, s0
600055e0:	ed93 4aef 	vldr	s8, [r3, #956]	; 0x3bc
600055e4:	eef1 fa10 	vmrs	APSR_nzcv, fpscr
600055e8:	bfc8      	it	gt
600055ea:	eeb0 5a41 	vmovgt.f32	s10, s2
600055ee:	eeb4 5a42 	vcmp.f32	s10, s4
600055f2:	eef1 fa10 	vmrs	APSR_nzcv, fpscr
600055f6:	bf48      	it	mi
600055f8:	eeb0 5a42 	vmovmi.f32	s10, s4
600055fc:	eeb4 5a43 	vcmp.f32	s10, s6
60005600:	eef1 fa10 	vmrs	APSR_nzcv, fpscr
60005604:	bf48      	it	mi
60005606:	eeb0 5a43 	vmovmi.f32	s10, s6
6000560a:	eeb4 5a44 	vcmp.f32	s10, s8
6000560e:	eef1 fa10 	vmrs	APSR_nzcv, fpscr
60005612:	bf48      	it	mi
60005614:	eeb0 5a44 	vmovmi.f32	s10, s8
60005618:	1c6b      	adds	r3, r5, #1
6000561a:	f144 0200 	adc.w	r2, r4, #0
6000561e:	3602      	adds	r6, #2
60005620:	f147 0700 	adc.w	r7, r7, #0
60005624:	3d0d      	subs	r5, #13
60005626:	f174 0400 	sbcs.w	r4, r4, #0
6000562a:	ed81 5a07 	vstr	s10, [r1, #28]
6000562e:	f101 0120 	add.w	r1, r1, #32
60005632:	461d      	mov	r5, r3
60005634:	4614      	mov	r4, r2
60005636:	f4ff aeaf 	bcc.w	60005398 <libjit_max_pool_f_1_specialized+0x28>
6000563a:	f11c 0201 	adds.w	r2, ip, #1
6000563e:	f14e 0300 	adc.w	r3, lr, #0
60005642:	f119 0902 	adds.w	r9, r9, #2
60005646:	f148 0800 	adc.w	r8, r8, #0
6000564a:	f1bc 070d 	subs.w	r7, ip, #13
6000564e:	f17e 0700 	sbcs.w	r7, lr, #0
60005652:	4694      	mov	ip, r2
60005654:	469e      	mov	lr, r3
60005656:	d301      	bcc.n	6000565c <libjit_max_pool_f_1_specialized+0x2ec>
60005658:	e8bd 87f0 	ldmia.w	sp!, {r4, r5, r6, r7, r8, r9, sl, pc}
6000565c:	e694      	b.n	60005388 <libjit_max_pool_f_1_specialized+0x18>
6000565e:	bf00      	nop
60005660:	ff7fffff 	.word	0xff7fffff

60005664 <libjit_conv2d_f_2_specialized>:
60005664:	e92d 4ff0 	stmdb	sp!, {r4, r5, r6, r7, r8, r9, sl, fp, lr}
60005668:	b091      	sub	sp, #68	; 0x44
6000566a:	f04f 0800 	mov.w	r8, #0
6000566e:	f04f 0c0e 	mov.w	ip, #14
60005672:	f04f 0e00 	mov.w	lr, #0
60005676:	bf00      	nop
60005678:	fba8 950c 	umull	r9, r5, r8, ip
6000567c:	2700      	movs	r7, #0
6000567e:	f04f 0a00 	mov.w	sl, #0
60005682:	bf00      	nop
60005684:	eb07 0609 	add.w	r6, r7, r9
60005688:	681c      	ldr	r4, [r3, #0]
6000568a:	01b6      	lsls	r6, r6, #6
6000568c:	5184      	str	r4, [r0, r6]
6000568e:	685c      	ldr	r4, [r3, #4]
60005690:	1d35      	adds	r5, r6, #4
60005692:	5144      	str	r4, [r0, r5]
60005694:	689c      	ldr	r4, [r3, #8]
60005696:	f106 0508 	add.w	r5, r6, #8
6000569a:	5144      	str	r4, [r0, r5]
6000569c:	68dc      	ldr	r4, [r3, #12]
6000569e:	f106 050c 	add.w	r5, r6, #12
600056a2:	5144      	str	r4, [r0, r5]
600056a4:	691c      	ldr	r4, [r3, #16]
600056a6:	f106 0510 	add.w	r5, r6, #16
600056aa:	5144      	str	r4, [r0, r5]
600056ac:	695c      	ldr	r4, [r3, #20]
600056ae:	f106 0514 	add.w	r5, r6, #20
600056b2:	5144      	str	r4, [r0, r5]
600056b4:	699c      	ldr	r4, [r3, #24]
600056b6:	f106 0518 	add.w	r5, r6, #24
600056ba:	5144      	str	r4, [r0, r5]
600056bc:	69dc      	ldr	r4, [r3, #28]
600056be:	f106 051c 	add.w	r5, r6, #28
600056c2:	5144      	str	r4, [r0, r5]
600056c4:	6a1c      	ldr	r4, [r3, #32]
600056c6:	f106 0520 	add.w	r5, r6, #32
600056ca:	5144      	str	r4, [r0, r5]
600056cc:	6a5c      	ldr	r4, [r3, #36]	; 0x24
600056ce:	f106 0524 	add.w	r5, r6, #36	; 0x24
600056d2:	5144      	str	r4, [r0, r5]
600056d4:	6a9c      	ldr	r4, [r3, #40]	; 0x28
600056d6:	f106 0528 	add.w	r5, r6, #40	; 0x28
600056da:	5144      	str	r4, [r0, r5]
600056dc:	6adc      	ldr	r4, [r3, #44]	; 0x2c
600056de:	f106 052c 	add.w	r5, r6, #44	; 0x2c
600056e2:	5144      	str	r4, [r0, r5]
600056e4:	6b1c      	ldr	r4, [r3, #48]	; 0x30
600056e6:	f106 0530 	add.w	r5, r6, #48	; 0x30
600056ea:	5144      	str	r4, [r0, r5]
600056ec:	6b5c      	ldr	r4, [r3, #52]	; 0x34
600056ee:	f106 0534 	add.w	r5, r6, #52	; 0x34
600056f2:	5144      	str	r4, [r0, r5]
600056f4:	6b9c      	ldr	r4, [r3, #56]	; 0x38
600056f6:	f106 0538 	add.w	r5, r6, #56	; 0x38
600056fa:	5144      	str	r4, [r0, r5]
600056fc:	6bdc      	ldr	r4, [r3, #60]	; 0x3c
600056fe:	f106 053c 	add.w	r5, r6, #60	; 0x3c
60005702:	5144      	str	r4, [r0, r5]
60005704:	f047 0401 	orr.w	r4, r7, #1
60005708:	444c      	add	r4, r9
6000570a:	681d      	ldr	r5, [r3, #0]
6000570c:	01a6      	lsls	r6, r4, #6
6000570e:	5185      	str	r5, [r0, r6]
60005710:	685c      	ldr	r4, [r3, #4]
60005712:	1d35      	adds	r5, r6, #4
60005714:	5144      	str	r4, [r0, r5]
60005716:	689c      	ldr	r4, [r3, #8]
60005718:	f106 0508 	add.w	r5, r6, #8
6000571c:	5144      	str	r4, [r0, r5]
6000571e:	68dc      	ldr	r4, [r3, #12]
60005720:	f106 050c 	add.w	r5, r6, #12
60005724:	5144      	str	r4, [r0, r5]
60005726:	691c      	ldr	r4, [r3, #16]
60005728:	f106 0510 	add.w	r5, r6, #16
6000572c:	5144      	str	r4, [r0, r5]
6000572e:	695c      	ldr	r4, [r3, #20]
60005730:	f106 0514 	add.w	r5, r6, #20
60005734:	5144      	str	r4, [r0, r5]
60005736:	699c      	ldr	r4, [r3, #24]
60005738:	f106 0518 	add.w	r5, r6, #24
6000573c:	5144      	str	r4, [r0, r5]
6000573e:	69dc      	ldr	r4, [r3, #28]
60005740:	f106 051c 	add.w	r5, r6, #28
60005744:	5144      	str	r4, [r0, r5]
60005746:	6a1c      	ldr	r4, [r3, #32]
60005748:	f106 0520 	add.w	r5, r6, #32
6000574c:	5144      	str	r4, [r0, r5]
6000574e:	6a5c      	ldr	r4, [r3, #36]	; 0x24
60005750:	f106 0524 	add.w	r5, r6, #36	; 0x24
60005754:	5144      	str	r4, [r0, r5]
60005756:	6a9c      	ldr	r4, [r3, #40]	; 0x28
60005758:	f106 0528 	add.w	r5, r6, #40	; 0x28
6000575c:	5144      	str	r4, [r0, r5]
6000575e:	6adc      	ldr	r4, [r3, #44]	; 0x2c
60005760:	f106 052c 	add.w	r5, r6, #44	; 0x2c
60005764:	5144      	str	r4, [r0, r5]
60005766:	6b1c      	ldr	r4, [r3, #48]	; 0x30
60005768:	f106 0530 	add.w	r5, r6, #48	; 0x30
6000576c:	5144      	str	r4, [r0, r5]
6000576e:	6b5c      	ldr	r4, [r3, #52]	; 0x34
60005770:	f106 0534 	add.w	r5, r6, #52	; 0x34
60005774:	5144      	str	r4, [r0, r5]
60005776:	6b9c      	ldr	r4, [r3, #56]	; 0x38
60005778:	f106 0538 	add.w	r5, r6, #56	; 0x38
6000577c:	5144      	str	r4, [r0, r5]
6000577e:	6bdc      	ldr	r4, [r3, #60]	; 0x3c
60005780:	f106 053c 	add.w	r5, r6, #60	; 0x3c
60005784:	5144      	str	r4, [r0, r5]
60005786:	1cbc      	adds	r4, r7, #2
60005788:	f14a 0500 	adc.w	r5, sl, #0
6000578c:	f1b7 060c 	subs.w	r6, r7, #12
60005790:	f17a 0600 	sbcs.w	r6, sl, #0
60005794:	4627      	mov	r7, r4
60005796:	46aa      	mov	sl, r5
60005798:	f4ff af74 	bcc.w	60005684 <libjit_conv2d_f_2_specialized+0x20>
6000579c:	f118 0401 	adds.w	r4, r8, #1
600057a0:	f14e 0500 	adc.w	r5, lr, #0
600057a4:	f1b8 060d 	subs.w	r6, r8, #13
600057a8:	f17e 0700 	sbcs.w	r7, lr, #0
600057ac:	46a0      	mov	r8, r4
600057ae:	46ae      	mov	lr, r5
600057b0:	f4ff af62 	bcc.w	60005678 <libjit_conv2d_f_2_specialized+0x14>
600057b4:	ed9f 0a2c 	vldr	s0, [pc, #176]	; 60005868 <libjit_conv2d_f_2_specialized+0x204>
600057b8:	f04f 0800 	mov.w	r8, #0
600057bc:	2700      	movs	r7, #0
600057be:	2300      	movs	r3, #0
600057c0:	e009      	b.n	600057d6 <libjit_conv2d_f_2_specialized+0x172>
600057c2:	bf00      	nop
600057c4:	9b00      	ldr	r3, [sp, #0]
600057c6:	9f0c      	ldr	r7, [sp, #48]	; 0x30
600057c8:	433b      	orrs	r3, r7
600057ca:	f04f 0300 	mov.w	r3, #0
600057ce:	f04f 0708 	mov.w	r7, #8
600057d2:	f040 8355 	bne.w	60005e80 <libjit_conv2d_f_2_specialized+0x81c>
600057d6:	9300      	str	r3, [sp, #0]
600057d8:	2305      	movs	r3, #5
600057da:	970c      	str	r7, [sp, #48]	; 0x30
600057dc:	fba7 7303 	umull	r7, r3, r7, r3
600057e0:	2600      	movs	r6, #0
600057e2:	2500      	movs	r5, #0
600057e4:	9701      	str	r7, [sp, #4]
600057e6:	e008      	b.n	600057fa <libjit_conv2d_f_2_specialized+0x196>
600057e8:	1c73      	adds	r3, r6, #1
600057ea:	f145 0700 	adc.w	r7, r5, #0
600057ee:	3e04      	subs	r6, #4
600057f0:	f175 0600 	sbcs.w	r6, r5, #0
600057f4:	461e      	mov	r6, r3
600057f6:	463d      	mov	r5, r7
600057f8:	d2e4      	bcs.n	600057c4 <libjit_conv2d_f_2_specialized+0x160>
600057fa:	1eb3      	subs	r3, r6, #2
600057fc:	9308      	str	r3, [sp, #32]
600057fe:	f165 0300 	sbc.w	r3, r5, #0
60005802:	9307      	str	r3, [sp, #28]
60005804:	9b01      	ldr	r3, [sp, #4]
60005806:	2705      	movs	r7, #5
60005808:	199b      	adds	r3, r3, r6
6000580a:	fba3 7307 	umull	r7, r3, r3, r7
6000580e:	9702      	str	r7, [sp, #8]
60005810:	2400      	movs	r4, #0
60005812:	2700      	movs	r7, #0
60005814:	e9cd 5603 	strd	r5, r6, [sp, #12]
60005818:	e00b      	b.n	60005832 <libjit_conv2d_f_2_specialized+0x1ce>
6000581a:	bf00      	nop
6000581c:	9e06      	ldr	r6, [sp, #24]
6000581e:	9d05      	ldr	r5, [sp, #20]
60005820:	1c74      	adds	r4, r6, #1
60005822:	f145 0700 	adc.w	r7, r5, #0
60005826:	3e04      	subs	r6, #4
60005828:	f175 0600 	sbcs.w	r6, r5, #0
6000582c:	e9dd 5603 	ldrd	r5, r6, [sp, #12]
60005830:	d2da      	bcs.n	600057e8 <libjit_conv2d_f_2_specialized+0x184>
60005832:	f086 0c04 	eor.w	ip, r6, #4
60005836:	f084 0304 	eor.w	r3, r4, #4
6000583a:	ea45 0607 	orr.w	r6, r5, r7
6000583e:	ea43 030c 	orr.w	r3, r3, ip
60005842:	4333      	orrs	r3, r6
60005844:	fab3 f383 	clz	r3, r3
60005848:	ea4f 1953 	mov.w	r9, r3, lsr #5
6000584c:	1ea3      	subs	r3, r4, #2
6000584e:	9310      	str	r3, [sp, #64]	; 0x40
60005850:	f167 0300 	sbc.w	r3, r7, #0
60005854:	930f      	str	r3, [sp, #60]	; 0x3c
60005856:	9b02      	ldr	r3, [sp, #8]
60005858:	9705      	str	r7, [sp, #20]
6000585a:	191b      	adds	r3, r3, r4
6000585c:	ea4f 0ac3 	mov.w	sl, r3, lsl #3
60005860:	2600      	movs	r6, #0
60005862:	2700      	movs	r7, #0
60005864:	9406      	str	r4, [sp, #24]
60005866:	e00b      	b.n	60005880 <libjit_conv2d_f_2_specialized+0x21c>
60005868:	00000000 	.word	0x00000000
6000586c:	9e0a      	ldr	r6, [sp, #40]	; 0x28
6000586e:	9d09      	ldr	r5, [sp, #36]	; 0x24
60005870:	1c73      	adds	r3, r6, #1
60005872:	f145 0700 	adc.w	r7, r5, #0
60005876:	3e0d      	subs	r6, #13
60005878:	f175 0600 	sbcs.w	r6, r5, #0
6000587c:	461e      	mov	r6, r3
6000587e:	d2cd      	bcs.n	6000581c <libjit_conv2d_f_2_specialized+0x1b8>
60005880:	9b08      	ldr	r3, [sp, #32]
60005882:	9709      	str	r7, [sp, #36]	; 0x24
60005884:	199d      	adds	r5, r3, r6
60005886:	9b07      	ldr	r3, [sp, #28]
60005888:	950e      	str	r5, [sp, #56]	; 0x38
6000588a:	eb43 0e07 	adc.w	lr, r3, r7
6000588e:	270e      	movs	r7, #14
60005890:	fba5 5307 	umull	r5, r3, r5, r7
60005894:	fba6 7307 	umull	r7, r3, r6, r7
60005898:	f04f 0c00 	mov.w	ip, #0
6000589c:	f04f 0b00 	mov.w	fp, #0
600058a0:	e9cd 650a 	strd	r6, r5, [sp, #40]	; 0x28
600058a4:	970d      	str	r7, [sp, #52]	; 0x34
600058a6:	e00c      	b.n	600058c2 <libjit_conv2d_f_2_specialized+0x25e>
600058a8:	ed83 1a00 	vstr	s2, [r3]
600058ac:	f11c 0301 	adds.w	r3, ip, #1
600058b0:	f14b 0400 	adc.w	r4, fp, #0
600058b4:	f1bc 070d 	subs.w	r7, ip, #13
600058b8:	f17b 0700 	sbcs.w	r7, fp, #0
600058bc:	469c      	mov	ip, r3
600058be:	46a3      	mov	fp, r4
600058c0:	d2d4      	bcs.n	6000586c <libjit_conv2d_f_2_specialized+0x208>
600058c2:	9b10      	ldr	r3, [sp, #64]	; 0x40
600058c4:	9c0f      	ldr	r4, [sp, #60]	; 0x3c
600058c6:	eb13 030c 	adds.w	r3, r3, ip
600058ca:	eb44 050b 	adc.w	r5, r4, fp
600058ce:	f1d3 060d 	rsbs	r6, r3, #13
600058d2:	eb78 0605 	sbcs.w	r6, r8, r5
600058d6:	f2c0 8245 	blt.w	60005d64 <libjit_conv2d_f_2_specialized+0x700>
600058da:	9c0e      	ldr	r4, [sp, #56]	; 0x38
600058dc:	f1d4 060d 	rsbs	r6, r4, #13
600058e0:	eb78 060e 	sbcs.w	r6, r8, lr
600058e4:	f2c0 823e 	blt.w	60005d64 <libjit_conv2d_f_2_specialized+0x700>
600058e8:	ea45 050e 	orr.w	r5, r5, lr
600058ec:	f1b5 3fff 	cmp.w	r5, #4294967295	; 0xffffffff
600058f0:	f340 8238 	ble.w	60005d64 <libjit_conv2d_f_2_specialized+0x700>
600058f4:	9c0b      	ldr	r4, [sp, #44]	; 0x2c
600058f6:	eeb0 1a40 	vmov.f32	s2, s0
600058fa:	191b      	adds	r3, r3, r4
600058fc:	00dd      	lsls	r5, r3, #3
600058fe:	2300      	movs	r3, #0
60005900:	eeb0 2a40 	vmov.f32	s4, s0
60005904:	eeb0 3a40 	vmov.f32	s6, s0
60005908:	eeb0 4a40 	vmov.f32	s8, s0
6000590c:	2600      	movs	r6, #0
6000590e:	bf00      	nop
60005910:	ea43 0405 	orr.w	r4, r3, r5
60005914:	eb01 0484 	add.w	r4, r1, r4, lsl #2
60005918:	ed94 5a00 	vldr	s10, [r4]
6000591c:	ea43 040a 	orr.w	r4, r3, sl
60005920:	eb02 0484 	add.w	r4, r2, r4, lsl #2
60005924:	ed94 6a00 	vldr	s12, [r4]
60005928:	ed94 7ac8 	vldr	s14, [r4, #800]	; 0x320
6000592c:	ee25 6a06 	vmul.f32	s12, s10, s12
60005930:	f504 67c8 	add.w	r7, r4, #1600	; 0x640
60005934:	ee34 4a06 	vadd.f32	s8, s8, s12
60005938:	ee25 6a07 	vmul.f32	s12, s10, s14
6000593c:	ed97 7a00 	vldr	s14, [r7]
60005940:	f504 6416 	add.w	r4, r4, #2400	; 0x960
60005944:	ee33 3a06 	vadd.f32	s6, s6, s12
60005948:	ee25 6a07 	vmul.f32	s12, s10, s14
6000594c:	ed94 7a00 	vldr	s14, [r4]
60005950:	f043 0401 	orr.w	r4, r3, #1
60005954:	ea44 0705 	orr.w	r7, r4, r5
60005958:	ea44 040a 	orr.w	r4, r4, sl
6000595c:	ee25 5a07 	vmul.f32	s10, s10, s14
60005960:	eb01 0787 	add.w	r7, r1, r7, lsl #2
60005964:	eb02 0484 	add.w	r4, r2, r4, lsl #2
60005968:	ee32 2a06 	vadd.f32	s4, s4, s12
6000596c:	ee31 1a05 	vadd.f32	s2, s2, s10
60005970:	ed97 5a00 	vldr	s10, [r7]
60005974:	ed94 6a00 	vldr	s12, [r4]
60005978:	ed94 7ac8 	vldr	s14, [r4, #800]	; 0x320
6000597c:	ee25 6a06 	vmul.f32	s12, s10, s12
60005980:	f504 67c8 	add.w	r7, r4, #1600	; 0x640
60005984:	ee34 4a06 	vadd.f32	s8, s8, s12
60005988:	ee25 6a07 	vmul.f32	s12, s10, s14
6000598c:	ed97 7a00 	vldr	s14, [r7]
60005990:	f504 6416 	add.w	r4, r4, #2400	; 0x960
60005994:	ee33 3a06 	vadd.f32	s6, s6, s12
60005998:	ee25 6a07 	vmul.f32	s12, s10, s14
6000599c:	ed94 7a00 	vldr	s14, [r4]
600059a0:	f043 0402 	orr.w	r4, r3, #2
600059a4:	ea44 0705 	orr.w	r7, r4, r5
600059a8:	ea44 040a 	orr.w	r4, r4, sl
600059ac:	ee25 5a07 	vmul.f32	s10, s10, s14
600059b0:	eb01 0787 	add.w	r7, r1, r7, lsl #2
600059b4:	eb02 0484 	add.w	r4, r2, r4, lsl #2
600059b8:	ee32 2a06 	vadd.f32	s4, s4, s12
600059bc:	ee31 1a05 	vadd.f32	s2, s2, s10
600059c0:	ed97 5a00 	vldr	s10, [r7]
600059c4:	ed94 6a00 	vldr	s12, [r4]
600059c8:	ed94 7ac8 	vldr	s14, [r4, #800]	; 0x320
600059cc:	ee25 6a06 	vmul.f32	s12, s10, s12
600059d0:	f504 67c8 	add.w	r7, r4, #1600	; 0x640
600059d4:	ee34 4a06 	vadd.f32	s8, s8, s12
600059d8:	ee25 6a07 	vmul.f32	s12, s10, s14
600059dc:	ed97 7a00 	vldr	s14, [r7]
600059e0:	f504 6416 	add.w	r4, r4, #2400	; 0x960
600059e4:	ee33 3a06 	vadd.f32	s6, s6, s12
600059e8:	ee25 6a07 	vmul.f32	s12, s10, s14
600059ec:	ed94 7a00 	vldr	s14, [r4]
600059f0:	f043 0403 	orr.w	r4, r3, #3
600059f4:	ea44 0705 	orr.w	r7, r4, r5
600059f8:	ea44 040a 	orr.w	r4, r4, sl
600059fc:	ee25 5a07 	vmul.f32	s10, s10, s14
60005a00:	eb01 0787 	add.w	r7, r1, r7, lsl #2
60005a04:	eb02 0484 	add.w	r4, r2, r4, lsl #2
60005a08:	ee32 2a06 	vadd.f32	s4, s4, s12
60005a0c:	ee31 1a05 	vadd.f32	s2, s2, s10
60005a10:	ed97 5a00 	vldr	s10, [r7]
60005a14:	ed94 6a00 	vldr	s12, [r4]
60005a18:	ed94 7ac8 	vldr	s14, [r4, #800]	; 0x320
60005a1c:	ee25 6a06 	vmul.f32	s12, s10, s12
60005a20:	f504 67c8 	add.w	r7, r4, #1600	; 0x640
60005a24:	ee34 4a06 	vadd.f32	s8, s8, s12
60005a28:	ee25 6a07 	vmul.f32	s12, s10, s14
60005a2c:	ed97 7a00 	vldr	s14, [r7]
60005a30:	f504 6416 	add.w	r4, r4, #2400	; 0x960
60005a34:	ee33 3a06 	vadd.f32	s6, s6, s12
60005a38:	ee25 6a07 	vmul.f32	s12, s10, s14
60005a3c:	ed94 7a00 	vldr	s14, [r4]
60005a40:	4333      	orrs	r3, r6
60005a42:	ee25 5a07 	vmul.f32	s10, s10, s14
60005a46:	ee32 2a06 	vadd.f32	s4, s4, s12
60005a4a:	ee31 1a05 	vadd.f32	s2, s2, s10
60005a4e:	f04f 0600 	mov.w	r6, #0
60005a52:	f04f 0304 	mov.w	r3, #4
60005a56:	f43f af5b 	beq.w	60005910 <libjit_conv2d_f_2_specialized+0x2ac>
60005a5a:	2300      	movs	r3, #0
60005a5c:	eeb0 5a40 	vmov.f32	s10, s0
60005a60:	eeb0 6a40 	vmov.f32	s12, s0
60005a64:	eeb0 7a40 	vmov.f32	s14, s0
60005a68:	eef0 0a40 	vmov.f32	s1, s0
60005a6c:	f04f 0800 	mov.w	r8, #0
60005a70:	ea43 0405 	orr.w	r4, r3, r5
60005a74:	eb01 0484 	add.w	r4, r1, r4, lsl #2
60005a78:	edd4 1a00 	vldr	s3, [r4]
60005a7c:	ea43 040a 	orr.w	r4, r3, sl
60005a80:	eb02 0484 	add.w	r4, r2, r4, lsl #2
60005a84:	f504 6648 	add.w	r6, r4, #3200	; 0xc80
60005a88:	edd6 2a00 	vldr	s5, [r6]
60005a8c:	f504 667a 	add.w	r6, r4, #4000	; 0xfa0
60005a90:	edd6 3a00 	vldr	s7, [r6]
60005a94:	ee61 2aa2 	vmul.f32	s5, s3, s5
60005a98:	f504 5696 	add.w	r6, r4, #4800	; 0x12c0
60005a9c:	ee70 0aa2 	vadd.f32	s1, s1, s5
60005aa0:	ee61 2aa3 	vmul.f32	s5, s3, s7
60005aa4:	edd6 3a00 	vldr	s7, [r6]
60005aa8:	f504 54af 	add.w	r4, r4, #5600	; 0x15e0
60005aac:	ee37 7a22 	vadd.f32	s14, s14, s5
60005ab0:	ee61 2aa3 	vmul.f32	s5, s3, s7
60005ab4:	edd4 3a00 	vldr	s7, [r4]
60005ab8:	f043 0401 	orr.w	r4, r3, #1
60005abc:	ea44 0605 	orr.w	r6, r4, r5
60005ac0:	ea44 040a 	orr.w	r4, r4, sl
60005ac4:	eb01 0686 	add.w	r6, r1, r6, lsl #2
60005ac8:	eb02 0484 	add.w	r4, r2, r4, lsl #2
60005acc:	ee36 6a22 	vadd.f32	s12, s12, s5
60005ad0:	edd6 2a00 	vldr	s5, [r6]
60005ad4:	f504 6648 	add.w	r6, r4, #3200	; 0xc80
60005ad8:	ee61 1aa3 	vmul.f32	s3, s3, s7
60005adc:	edd6 3a00 	vldr	s7, [r6]
60005ae0:	f504 667a 	add.w	r6, r4, #4000	; 0xfa0
60005ae4:	ee35 5a21 	vadd.f32	s10, s10, s3
60005ae8:	ee62 1aa3 	vmul.f32	s3, s5, s7
60005aec:	edd6 3a00 	vldr	s7, [r6]
60005af0:	f504 5696 	add.w	r6, r4, #4800	; 0x12c0
60005af4:	ee70 0aa1 	vadd.f32	s1, s1, s3
60005af8:	ee62 1aa3 	vmul.f32	s3, s5, s7
60005afc:	edd6 3a00 	vldr	s7, [r6]
60005b00:	f504 54af 	add.w	r4, r4, #5600	; 0x15e0
60005b04:	ee37 7a21 	vadd.f32	s14, s14, s3
60005b08:	ee62 1aa3 	vmul.f32	s3, s5, s7
60005b0c:	edd4 3a00 	vldr	s7, [r4]
60005b10:	f043 0402 	orr.w	r4, r3, #2
60005b14:	ea44 0605 	orr.w	r6, r4, r5
60005b18:	ea44 040a 	orr.w	r4, r4, sl
60005b1c:	eb01 0686 	add.w	r6, r1, r6, lsl #2
60005b20:	eb02 0484 	add.w	r4, r2, r4, lsl #2
60005b24:	ee36 6a21 	vadd.f32	s12, s12, s3
60005b28:	ee62 1aa3 	vmul.f32	s3, s5, s7
60005b2c:	edd6 2a00 	vldr	s5, [r6]
60005b30:	f504 6648 	add.w	r6, r4, #3200	; 0xc80
60005b34:	edd6 3a00 	vldr	s7, [r6]
60005b38:	f504 667a 	add.w	r6, r4, #4000	; 0xfa0
60005b3c:	ee35 5a21 	vadd.f32	s10, s10, s3
60005b40:	ee62 1aa3 	vmul.f32	s3, s5, s7
60005b44:	edd6 3a00 	vldr	s7, [r6]
60005b48:	f504 5696 	add.w	r6, r4, #4800	; 0x12c0
60005b4c:	ee70 0aa1 	vadd.f32	s1, s1, s3
60005b50:	ee62 1aa3 	vmul.f32	s3, s5, s7
60005b54:	edd6 3a00 	vldr	s7, [r6]
60005b58:	f504 54af 	add.w	r4, r4, #5600	; 0x15e0
60005b5c:	ee37 7a21 	vadd.f32	s14, s14, s3
60005b60:	ee62 1aa3 	vmul.f32	s3, s5, s7
60005b64:	edd4 3a00 	vldr	s7, [r4]
60005b68:	f043 0403 	orr.w	r4, r3, #3
60005b6c:	ea44 0605 	orr.w	r6, r4, r5
60005b70:	ea44 040a 	orr.w	r4, r4, sl
60005b74:	eb01 0686 	add.w	r6, r1, r6, lsl #2
60005b78:	eb02 0484 	add.w	r4, r2, r4, lsl #2
60005b7c:	ee36 6a21 	vadd.f32	s12, s12, s3
60005b80:	ee62 1aa3 	vmul.f32	s3, s5, s7
60005b84:	edd6 2a00 	vldr	s5, [r6]
60005b88:	f504 6648 	add.w	r6, r4, #3200	; 0xc80
60005b8c:	edd6 3a00 	vldr	s7, [r6]
60005b90:	f504 667a 	add.w	r6, r4, #4000	; 0xfa0
60005b94:	ee35 5a21 	vadd.f32	s10, s10, s3
60005b98:	ee62 1aa3 	vmul.f32	s3, s5, s7
60005b9c:	edd6 3a00 	vldr	s7, [r6]
60005ba0:	f504 5696 	add.w	r6, r4, #4800	; 0x12c0
60005ba4:	ee70 0aa1 	vadd.f32	s1, s1, s3
60005ba8:	ee62 1aa3 	vmul.f32	s3, s5, s7
60005bac:	edd6 3a00 	vldr	s7, [r6]
60005bb0:	f504 54af 	add.w	r4, r4, #5600	; 0x15e0
60005bb4:	ee37 7a21 	vadd.f32	s14, s14, s3
60005bb8:	ee62 1aa3 	vmul.f32	s3, s5, s7
60005bbc:	edd4 3a00 	vldr	s7, [r4]
60005bc0:	ee36 6a21 	vadd.f32	s12, s12, s3
60005bc4:	ee62 1aa3 	vmul.f32	s3, s5, s7
60005bc8:	ea53 0308 	orrs.w	r3, r3, r8
60005bcc:	ee35 5a21 	vadd.f32	s10, s10, s3
60005bd0:	f04f 0800 	mov.w	r8, #0
60005bd4:	f04f 0304 	mov.w	r3, #4
60005bd8:	f43f af4a 	beq.w	60005a70 <libjit_conv2d_f_2_specialized+0x40c>
60005bdc:	9b0d      	ldr	r3, [sp, #52]	; 0x34
60005bde:	9c0c      	ldr	r4, [sp, #48]	; 0x30
60005be0:	4463      	add	r3, ip
60005be2:	ea44 1303 	orr.w	r3, r4, r3, lsl #4
60005be6:	eb00 0483 	add.w	r4, r0, r3, lsl #2
60005bea:	edd4 1a00 	vldr	s3, [r4]
60005bee:	f043 0501 	orr.w	r5, r3, #1
60005bf2:	ee34 4a21 	vadd.f32	s8, s8, s3
60005bf6:	eeb5 4a40 	vcmp.f32	s8, #0.0
60005bfa:	eef0 1a40 	vmov.f32	s3, s0
60005bfe:	eef1 fa10 	vmrs	APSR_nzcv, fpscr
60005c02:	bfc8      	it	gt
60005c04:	eef0 1a44 	vmovgt.f32	s3, s8
60005c08:	eb00 0585 	add.w	r5, r0, r5, lsl #2
60005c0c:	f1b9 0f00 	cmp.w	r9, #0
60005c10:	bf18      	it	ne
60005c12:	eeb0 4a61 	vmovne.f32	s8, s3
60005c16:	edd5 1a00 	vldr	s3, [r5]
60005c1a:	ed84 4a00 	vstr	s8, [r4]
60005c1e:	ee33 3a21 	vadd.f32	s6, s6, s3
60005c22:	eeb5 3a40 	vcmp.f32	s6, #0.0
60005c26:	eeb0 4a40 	vmov.f32	s8, s0
60005c2a:	f043 0402 	orr.w	r4, r3, #2
60005c2e:	eef1 fa10 	vmrs	APSR_nzcv, fpscr
60005c32:	bfc8      	it	gt
60005c34:	eeb0 4a43 	vmovgt.f32	s8, s6
60005c38:	eb00 0484 	add.w	r4, r0, r4, lsl #2
60005c3c:	f1b9 0f00 	cmp.w	r9, #0
60005c40:	bf18      	it	ne
60005c42:	eeb0 3a44 	vmovne.f32	s6, s8
60005c46:	ed94 4a00 	vldr	s8, [r4]
60005c4a:	ed85 3a00 	vstr	s6, [r5]
60005c4e:	ee32 2a04 	vadd.f32	s4, s4, s8
60005c52:	eeb5 2a40 	vcmp.f32	s4, #0.0
60005c56:	eeb0 3a40 	vmov.f32	s6, s0
60005c5a:	f043 0503 	orr.w	r5, r3, #3
60005c5e:	eef1 fa10 	vmrs	APSR_nzcv, fpscr
60005c62:	bfc8      	it	gt
60005c64:	eeb0 3a42 	vmovgt.f32	s6, s4
60005c68:	eb00 0585 	add.w	r5, r0, r5, lsl #2
60005c6c:	f1b9 0f00 	cmp.w	r9, #0
60005c70:	bf18      	it	ne
60005c72:	eeb0 2a43 	vmovne.f32	s4, s6
60005c76:	ed95 3a00 	vldr	s6, [r5]
60005c7a:	ed84 2a00 	vstr	s4, [r4]
60005c7e:	ee31 1a03 	vadd.f32	s2, s2, s6
60005c82:	eeb5 1a40 	vcmp.f32	s2, #0.0
60005c86:	eeb0 2a40 	vmov.f32	s4, s0
60005c8a:	f043 0404 	orr.w	r4, r3, #4
60005c8e:	eef1 fa10 	vmrs	APSR_nzcv, fpscr
60005c92:	bfc8      	it	gt
60005c94:	eeb0 2a41 	vmovgt.f32	s4, s2
60005c98:	eb00 0484 	add.w	r4, r0, r4, lsl #2
60005c9c:	f1b9 0f00 	cmp.w	r9, #0
60005ca0:	bf18      	it	ne
60005ca2:	eeb0 1a42 	vmovne.f32	s2, s4
60005ca6:	ed94 2a00 	vldr	s4, [r4]
60005caa:	ed85 1a00 	vstr	s2, [r5]
60005cae:	ee30 1a82 	vadd.f32	s2, s1, s4
60005cb2:	eeb5 1a40 	vcmp.f32	s2, #0.0
60005cb6:	eeb0 2a40 	vmov.f32	s4, s0
60005cba:	f043 0505 	orr.w	r5, r3, #5
60005cbe:	eef1 fa10 	vmrs	APSR_nzcv, fpscr
60005cc2:	bfc8      	it	gt
60005cc4:	eeb0 2a41 	vmovgt.f32	s4, s2
60005cc8:	eb00 0585 	add.w	r5, r0, r5, lsl #2
60005ccc:	f1b9 0f00 	cmp.w	r9, #0
60005cd0:	bf18      	it	ne
60005cd2:	eeb0 1a42 	vmovne.f32	s2, s4
60005cd6:	ed95 2a00 	vldr	s4, [r5]
60005cda:	ed84 1a00 	vstr	s2, [r4]
60005cde:	ee37 1a02 	vadd.f32	s2, s14, s4
60005ce2:	eeb5 1a40 	vcmp.f32	s2, #0.0
60005ce6:	eeb0 2a40 	vmov.f32	s4, s0
60005cea:	f043 0406 	orr.w	r4, r3, #6
60005cee:	eef1 fa10 	vmrs	APSR_nzcv, fpscr
60005cf2:	bfc8      	it	gt
60005cf4:	eeb0 2a41 	vmovgt.f32	s4, s2
60005cf8:	eb00 0484 	add.w	r4, r0, r4, lsl #2
60005cfc:	f1b9 0f00 	cmp.w	r9, #0
60005d00:	bf18      	it	ne
60005d02:	eeb0 1a42 	vmovne.f32	s2, s4
60005d06:	ed94 2a00 	vldr	s4, [r4]
60005d0a:	ed85 1a00 	vstr	s2, [r5]
60005d0e:	ee36 1a02 	vadd.f32	s2, s12, s4
60005d12:	eeb5 1a40 	vcmp.f32	s2, #0.0
60005d16:	eeb0 2a40 	vmov.f32	s4, s0
60005d1a:	f043 0307 	orr.w	r3, r3, #7
60005d1e:	eef1 fa10 	vmrs	APSR_nzcv, fpscr
60005d22:	bfc8      	it	gt
60005d24:	eeb0 2a41 	vmovgt.f32	s4, s2
60005d28:	eb00 0383 	add.w	r3, r0, r3, lsl #2
60005d2c:	f1b9 0f00 	cmp.w	r9, #0
60005d30:	bf18      	it	ne
60005d32:	eeb0 1a42 	vmovne.f32	s2, s4
60005d36:	ed93 2a00 	vldr	s4, [r3]
60005d3a:	ed84 1a00 	vstr	s2, [r4]
60005d3e:	ee35 1a02 	vadd.f32	s2, s10, s4
60005d42:	eeb5 1a40 	vcmp.f32	s2, #0.0
60005d46:	eef1 fa10 	vmrs	APSR_nzcv, fpscr
60005d4a:	eeb0 2a40 	vmov.f32	s4, s0
60005d4e:	f04f 0800 	mov.w	r8, #0
60005d52:	bfc8      	it	gt
60005d54:	eeb0 2a41 	vmovgt.f32	s4, s2
60005d58:	f1b9 0f00 	cmp.w	r9, #0
60005d5c:	bf18      	it	ne
60005d5e:	eeb0 1a42 	vmovne.f32	s2, s4
60005d62:	e5a1      	b.n	600058a8 <libjit_conv2d_f_2_specialized+0x244>
60005d64:	f1b9 0f00 	cmp.w	r9, #0
60005d68:	f43f ada0 	beq.w	600058ac <libjit_conv2d_f_2_specialized+0x248>
60005d6c:	9b0d      	ldr	r3, [sp, #52]	; 0x34
60005d6e:	9c0c      	ldr	r4, [sp, #48]	; 0x30
60005d70:	4463      	add	r3, ip
60005d72:	ea44 1303 	orr.w	r3, r4, r3, lsl #4
60005d76:	eb00 0583 	add.w	r5, r0, r3, lsl #2
60005d7a:	ed95 1a00 	vldr	s2, [r5]
60005d7e:	f043 0601 	orr.w	r6, r3, #1
60005d82:	eeb5 1a40 	vcmp.f32	s2, #0.0
60005d86:	eeb0 2a40 	vmov.f32	s4, s0
60005d8a:	eb00 0686 	add.w	r6, r0, r6, lsl #2
60005d8e:	eef1 fa10 	vmrs	APSR_nzcv, fpscr
60005d92:	bfc8      	it	gt
60005d94:	eeb0 2a41 	vmovgt.f32	s4, s2
60005d98:	ed96 1a00 	vldr	s2, [r6]
60005d9c:	ed85 2a00 	vstr	s4, [r5]
60005da0:	f043 0502 	orr.w	r5, r3, #2
60005da4:	eeb5 1a40 	vcmp.f32	s2, #0.0
60005da8:	eeb0 2a40 	vmov.f32	s4, s0
60005dac:	eb00 0585 	add.w	r5, r0, r5, lsl #2
60005db0:	eef1 fa10 	vmrs	APSR_nzcv, fpscr
60005db4:	bfc8      	it	gt
60005db6:	eeb0 2a41 	vmovgt.f32	s4, s2
60005dba:	ed95 1a00 	vldr	s2, [r5]
60005dbe:	ed86 2a00 	vstr	s4, [r6]
60005dc2:	f043 0603 	orr.w	r6, r3, #3
60005dc6:	eeb5 1a40 	vcmp.f32	s2, #0.0
60005dca:	eeb0 2a40 	vmov.f32	s4, s0
60005dce:	eb00 0686 	add.w	r6, r0, r6, lsl #2
60005dd2:	eef1 fa10 	vmrs	APSR_nzcv, fpscr
60005dd6:	bfc8      	it	gt
60005dd8:	eeb0 2a41 	vmovgt.f32	s4, s2
60005ddc:	ed96 1a00 	vldr	s2, [r6]
60005de0:	ed85 2a00 	vstr	s4, [r5]
60005de4:	f043 0504 	orr.w	r5, r3, #4
60005de8:	eeb5 1a40 	vcmp.f32	s2, #0.0
60005dec:	eeb0 2a40 	vmov.f32	s4, s0
60005df0:	eb00 0585 	add.w	r5, r0, r5, lsl #2
60005df4:	eef1 fa10 	vmrs	APSR_nzcv, fpscr
60005df8:	bfc8      	it	gt
60005dfa:	eeb0 2a41 	vmovgt.f32	s4, s2
60005dfe:	ed95 1a00 	vldr	s2, [r5]
60005e02:	ed86 2a00 	vstr	s4, [r6]
60005e06:	f043 0605 	orr.w	r6, r3, #5
60005e0a:	eeb5 1a40 	vcmp.f32	s2, #0.0
60005e0e:	eeb0 2a40 	vmov.f32	s4, s0
60005e12:	eb00 0686 	add.w	r6, r0, r6, lsl #2
60005e16:	eef1 fa10 	vmrs	APSR_nzcv, fpscr
60005e1a:	bfc8      	it	gt
60005e1c:	eeb0 2a41 	vmovgt.f32	s4, s2
60005e20:	ed96 1a00 	vldr	s2, [r6]
60005e24:	ed85 2a00 	vstr	s4, [r5]
60005e28:	f043 0506 	orr.w	r5, r3, #6
60005e2c:	eeb5 1a40 	vcmp.f32	s2, #0.0
60005e30:	eeb0 2a40 	vmov.f32	s4, s0
60005e34:	eb00 0585 	add.w	r5, r0, r5, lsl #2
60005e38:	eef1 fa10 	vmrs	APSR_nzcv, fpscr
60005e3c:	bfc8      	it	gt
60005e3e:	eeb0 2a41 	vmovgt.f32	s4, s2
60005e42:	ed95 1a00 	vldr	s2, [r5]
60005e46:	f043 0307 	orr.w	r3, r3, #7
60005e4a:	ed86 2a00 	vstr	s4, [r6]
60005e4e:	eeb5 1a40 	vcmp.f32	s2, #0.0
60005e52:	eeb0 2a40 	vmov.f32	s4, s0
60005e56:	eb00 0383 	add.w	r3, r0, r3, lsl #2
60005e5a:	eef1 fa10 	vmrs	APSR_nzcv, fpscr
60005e5e:	bfc8      	it	gt
60005e60:	eeb0 2a41 	vmovgt.f32	s4, s2
60005e64:	ed93 3a00 	vldr	s6, [r3]
60005e68:	eeb0 1a40 	vmov.f32	s2, s0
60005e6c:	eeb5 3a40 	vcmp.f32	s6, #0.0
60005e70:	ed85 2a00 	vstr	s4, [r5]
60005e74:	eef1 fa10 	vmrs	APSR_nzcv, fpscr
60005e78:	bfc8      	it	gt
60005e7a:	eeb0 1a43 	vmovgt.f32	s2, s6
60005e7e:	e513      	b.n	600058a8 <libjit_conv2d_f_2_specialized+0x244>
60005e80:	b011      	add	sp, #68	; 0x44
60005e82:	e8bd 8ff0 	ldmia.w	sp!, {r4, r5, r6, r7, r8, r9, sl, fp, pc}
60005e86:	bf00      	nop

60005e88 <libjit_max_pool_f_3_specialized>:
60005e88:	e92d 43f0 	stmdb	sp!, {r4, r5, r6, r7, r8, r9, lr}
60005e8c:	ed9f 0ac8 	vldr	s0, [pc, #800]	; 600061b0 <libjit_max_pool_f_3_specialized+0x328>
60005e90:	f1a0 0810 	sub.w	r8, r0, #16
60005e94:	f04f 0c00 	mov.w	ip, #0
60005e98:	f04f 0e00 	mov.w	lr, #0
60005e9c:	f04f 0900 	mov.w	r9, #0
60005ea0:	4640      	mov	r0, r8
60005ea2:	2400      	movs	r4, #0
60005ea4:	2500      	movs	r5, #0
60005ea6:	4607      	mov	r7, r0
60005ea8:	2300      	movs	r3, #0
60005eaa:	bf00      	nop
60005eac:	ed97 1a04 	vldr	s2, [r7, #16]
60005eb0:	ed97 2a14 	vldr	s4, [r7, #80]	; 0x50
60005eb4:	ed97 3a24 	vldr	s6, [r7, #144]	; 0x90
60005eb8:	eeb4 1a40 	vcmp.f32	s2, s0
60005ebc:	eeb0 5a40 	vmov.f32	s10, s0
60005ec0:	ed97 4ae4 	vldr	s8, [r7, #912]	; 0x390
60005ec4:	eef1 fa10 	vmrs	APSR_nzcv, fpscr
60005ec8:	bfc8      	it	gt
60005eca:	eeb0 5a41 	vmovgt.f32	s10, s2
60005ece:	eeb4 5a42 	vcmp.f32	s10, s4
60005ed2:	eef1 fa10 	vmrs	APSR_nzcv, fpscr
60005ed6:	bf48      	it	mi
60005ed8:	eeb0 5a42 	vmovmi.f32	s10, s4
60005edc:	eeb4 5a43 	vcmp.f32	s10, s6
60005ee0:	eef1 fa10 	vmrs	APSR_nzcv, fpscr
60005ee4:	bf48      	it	mi
60005ee6:	eeb0 5a43 	vmovmi.f32	s10, s6
60005eea:	ed97 1af4 	vldr	s2, [r7, #976]	; 0x3d0
60005eee:	eeb4 5a44 	vcmp.f32	s10, s8
60005ef2:	eef1 fa10 	vmrs	APSR_nzcv, fpscr
60005ef6:	bf48      	it	mi
60005ef8:	eeb0 5a44 	vmovmi.f32	s10, s8
60005efc:	eeb4 5a41 	vcmp.f32	s10, s2
60005f00:	f507 6282 	add.w	r2, r7, #1040	; 0x410
60005f04:	eef1 fa10 	vmrs	APSR_nzcv, fpscr
60005f08:	bf48      	it	mi
60005f0a:	eeb0 5a41 	vmovmi.f32	s10, s2
60005f0e:	ed92 1a00 	vldr	s2, [r2]
60005f12:	ed92 2ac0 	vldr	s4, [r2, #768]	; 0x300
60005f16:	ed92 3ad0 	vldr	s6, [r2, #832]	; 0x340
60005f1a:	eeb4 5a41 	vcmp.f32	s10, s2
60005f1e:	ed92 4ae0 	vldr	s8, [r2, #896]	; 0x380
60005f22:	eef1 fa10 	vmrs	APSR_nzcv, fpscr
60005f26:	bf48      	it	mi
60005f28:	eeb0 5a41 	vmovmi.f32	s10, s2
60005f2c:	eeb4 5a42 	vcmp.f32	s10, s4
60005f30:	eef1 fa10 	vmrs	APSR_nzcv, fpscr
60005f34:	bf48      	it	mi
60005f36:	eeb0 5a42 	vmovmi.f32	s10, s4
60005f3a:	eeb4 5a43 	vcmp.f32	s10, s6
60005f3e:	eef1 fa10 	vmrs	APSR_nzcv, fpscr
60005f42:	bf48      	it	mi
60005f44:	eeb0 5a43 	vmovmi.f32	s10, s6
60005f48:	eeb4 5a44 	vcmp.f32	s10, s8
60005f4c:	eef1 fa10 	vmrs	APSR_nzcv, fpscr
60005f50:	bf48      	it	mi
60005f52:	eeb0 5a44 	vmovmi.f32	s10, s8
60005f56:	ed81 5a00 	vstr	s10, [r1]
60005f5a:	ed97 1a05 	vldr	s2, [r7, #20]
60005f5e:	ed97 2a15 	vldr	s4, [r7, #84]	; 0x54
60005f62:	ed97 3a25 	vldr	s6, [r7, #148]	; 0x94
60005f66:	eeb4 1a40 	vcmp.f32	s2, s0
60005f6a:	eeb0 5a40 	vmov.f32	s10, s0
60005f6e:	ed97 4ae5 	vldr	s8, [r7, #916]	; 0x394
60005f72:	eef1 fa10 	vmrs	APSR_nzcv, fpscr
60005f76:	bfc8      	it	gt
60005f78:	eeb0 5a41 	vmovgt.f32	s10, s2
60005f7c:	eeb4 5a42 	vcmp.f32	s10, s4
60005f80:	eef1 fa10 	vmrs	APSR_nzcv, fpscr
60005f84:	bf48      	it	mi
60005f86:	eeb0 5a42 	vmovmi.f32	s10, s4
60005f8a:	eeb4 5a43 	vcmp.f32	s10, s6
60005f8e:	eef1 fa10 	vmrs	APSR_nzcv, fpscr
60005f92:	bf48      	it	mi
60005f94:	eeb0 5a43 	vmovmi.f32	s10, s6
60005f98:	ed97 1af5 	vldr	s2, [r7, #980]	; 0x3d4
60005f9c:	eeb4 5a44 	vcmp.f32	s10, s8
60005fa0:	eef1 fa10 	vmrs	APSR_nzcv, fpscr
60005fa4:	bf48      	it	mi
60005fa6:	eeb0 5a44 	vmovmi.f32	s10, s8
60005faa:	eeb4 5a41 	vcmp.f32	s10, s2
60005fae:	eef1 fa10 	vmrs	APSR_nzcv, fpscr
60005fb2:	bf48      	it	mi
60005fb4:	eeb0 5a41 	vmovmi.f32	s10, s2
60005fb8:	ed92 1a01 	vldr	s2, [r2, #4]
60005fbc:	ed92 2ac1 	vldr	s4, [r2, #772]	; 0x304
60005fc0:	ed92 3ad1 	vldr	s6, [r2, #836]	; 0x344
60005fc4:	eeb4 5a41 	vcmp.f32	s10, s2
60005fc8:	ed92 4ae1 	vldr	s8, [r2, #900]	; 0x384
60005fcc:	eef1 fa10 	vmrs	APSR_nzcv, fpscr
60005fd0:	bf48      	it	mi
60005fd2:	eeb0 5a41 	vmovmi.f32	s10, s2
60005fd6:	eeb4 5a42 	vcmp.f32	s10, s4
60005fda:	eef1 fa10 	vmrs	APSR_nzcv, fpscr
60005fde:	bf48      	it	mi
60005fe0:	eeb0 5a42 	vmovmi.f32	s10, s4
60005fe4:	eeb4 5a43 	vcmp.f32	s10, s6
60005fe8:	eef1 fa10 	vmrs	APSR_nzcv, fpscr
60005fec:	bf48      	it	mi
60005fee:	eeb0 5a43 	vmovmi.f32	s10, s6
60005ff2:	eeb4 5a44 	vcmp.f32	s10, s8
60005ff6:	eef1 fa10 	vmrs	APSR_nzcv, fpscr
60005ffa:	bf48      	it	mi
60005ffc:	eeb0 5a44 	vmovmi.f32	s10, s8
60006000:	ed81 5a01 	vstr	s10, [r1, #4]
60006004:	ed97 1a06 	vldr	s2, [r7, #24]
60006008:	ed97 2a16 	vldr	s4, [r7, #88]	; 0x58
6000600c:	ed97 3a26 	vldr	s6, [r7, #152]	; 0x98
60006010:	eeb4 1a40 	vcmp.f32	s2, s0
60006014:	eeb0 5a40 	vmov.f32	s10, s0
60006018:	ed97 4ae6 	vldr	s8, [r7, #920]	; 0x398
6000601c:	eef1 fa10 	vmrs	APSR_nzcv, fpscr
60006020:	bfc8      	it	gt
60006022:	eeb0 5a41 	vmovgt.f32	s10, s2
60006026:	eeb4 5a42 	vcmp.f32	s10, s4
6000602a:	eef1 fa10 	vmrs	APSR_nzcv, fpscr
6000602e:	bf48      	it	mi
60006030:	eeb0 5a42 	vmovmi.f32	s10, s4
60006034:	eeb4 5a43 	vcmp.f32	s10, s6
60006038:	eef1 fa10 	vmrs	APSR_nzcv, fpscr
6000603c:	bf48      	it	mi
6000603e:	eeb0 5a43 	vmovmi.f32	s10, s6
60006042:	ed97 1af6 	vldr	s2, [r7, #984]	; 0x3d8
60006046:	eeb4 5a44 	vcmp.f32	s10, s8
6000604a:	eef1 fa10 	vmrs	APSR_nzcv, fpscr
6000604e:	bf48      	it	mi
60006050:	eeb0 5a44 	vmovmi.f32	s10, s8
60006054:	eeb4 5a41 	vcmp.f32	s10, s2
60006058:	eef1 fa10 	vmrs	APSR_nzcv, fpscr
6000605c:	bf48      	it	mi
6000605e:	eeb0 5a41 	vmovmi.f32	s10, s2
60006062:	ed92 1a02 	vldr	s2, [r2, #8]
60006066:	ed92 2ac2 	vldr	s4, [r2, #776]	; 0x308
6000606a:	ed92 3ad2 	vldr	s6, [r2, #840]	; 0x348
6000606e:	eeb4 5a41 	vcmp.f32	s10, s2
60006072:	ed92 4ae2 	vldr	s8, [r2, #904]	; 0x388
60006076:	eef1 fa10 	vmrs	APSR_nzcv, fpscr
6000607a:	bf48      	it	mi
6000607c:	eeb0 5a41 	vmovmi.f32	s10, s2
60006080:	eeb4 5a42 	vcmp.f32	s10, s4
60006084:	eef1 fa10 	vmrs	APSR_nzcv, fpscr
60006088:	bf48      	it	mi
6000608a:	eeb0 5a42 	vmovmi.f32	s10, s4
6000608e:	eeb4 5a43 	vcmp.f32	s10, s6
60006092:	eef1 fa10 	vmrs	APSR_nzcv, fpscr
60006096:	bf48      	it	mi
60006098:	eeb0 5a43 	vmovmi.f32	s10, s6
6000609c:	eeb4 5a44 	vcmp.f32	s10, s8
600060a0:	eef1 fa10 	vmrs	APSR_nzcv, fpscr
600060a4:	bf48      	it	mi
600060a6:	eeb0 5a44 	vmovmi.f32	s10, s8
600060aa:	ed81 5a02 	vstr	s10, [r1, #8]
600060ae:	ed97 1a07 	vldr	s2, [r7, #28]
600060b2:	ed97 2a17 	vldr	s4, [r7, #92]	; 0x5c
600060b6:	ed97 3a27 	vldr	s6, [r7, #156]	; 0x9c
600060ba:	eeb4 1a40 	vcmp.f32	s2, s0
600060be:	eeb0 5a40 	vmov.f32	s10, s0
600060c2:	ed97 4ae7 	vldr	s8, [r7, #924]	; 0x39c
600060c6:	eef1 fa10 	vmrs	APSR_nzcv, fpscr
600060ca:	bfc8      	it	gt
600060cc:	eeb0 5a41 	vmovgt.f32	s10, s2
600060d0:	eeb4 5a42 	vcmp.f32	s10, s4
600060d4:	ed97 1af7 	vldr	s2, [r7, #988]	; 0x3dc
600060d8:	eef1 fa10 	vmrs	APSR_nzcv, fpscr
600060dc:	bf48      	it	mi
600060de:	eeb0 5a42 	vmovmi.f32	s10, s4
600060e2:	eeb4 5a43 	vcmp.f32	s10, s6
600060e6:	eef1 fa10 	vmrs	APSR_nzcv, fpscr
600060ea:	bf48      	it	mi
600060ec:	eeb0 5a43 	vmovmi.f32	s10, s6
600060f0:	eeb4 5a44 	vcmp.f32	s10, s8
600060f4:	eef1 fa10 	vmrs	APSR_nzcv, fpscr
600060f8:	bf48      	it	mi
600060fa:	eeb0 5a44 	vmovmi.f32	s10, s8
600060fe:	eeb4 5a41 	vcmp.f32	s10, s2
60006102:	eef1 fa10 	vmrs	APSR_nzcv, fpscr
60006106:	bf48      	it	mi
60006108:	eeb0 5a41 	vmovmi.f32	s10, s2
6000610c:	ed92 1a03 	vldr	s2, [r2, #12]
60006110:	ed92 2ac3 	vldr	s4, [r2, #780]	; 0x30c
60006114:	ed92 3ad3 	vldr	s6, [r2, #844]	; 0x34c
60006118:	eeb4 5a41 	vcmp.f32	s10, s2
6000611c:	ed92 4ae3 	vldr	s8, [r2, #908]	; 0x38c
60006120:	eef1 fa10 	vmrs	APSR_nzcv, fpscr
60006124:	bf48      	it	mi
60006126:	eeb0 5a41 	vmovmi.f32	s10, s2
6000612a:	eeb4 5a42 	vcmp.f32	s10, s4
6000612e:	eef1 fa10 	vmrs	APSR_nzcv, fpscr
60006132:	bf48      	it	mi
60006134:	eeb0 5a42 	vmovmi.f32	s10, s4
60006138:	eeb4 5a43 	vcmp.f32	s10, s6
6000613c:	eef1 fa10 	vmrs	APSR_nzcv, fpscr
60006140:	bf48      	it	mi
60006142:	eeb0 5a43 	vmovmi.f32	s10, s6
60006146:	eeb4 5a44 	vcmp.f32	s10, s8
6000614a:	eef1 fa10 	vmrs	APSR_nzcv, fpscr
6000614e:	bf48      	it	mi
60006150:	eeb0 5a44 	vmovmi.f32	s10, s8
60006154:	1d2a      	adds	r2, r5, #4
60006156:	f143 0600 	adc.w	r6, r3, #0
6000615a:	3d0c      	subs	r5, #12
6000615c:	f173 0300 	sbcs.w	r3, r3, #0
60006160:	f107 0710 	add.w	r7, r7, #16
60006164:	ed81 5a03 	vstr	s10, [r1, #12]
60006168:	f101 0110 	add.w	r1, r1, #16
6000616c:	4615      	mov	r5, r2
6000616e:	4633      	mov	r3, r6
60006170:	f4ff ae9c 	bcc.w	60005eac <libjit_max_pool_f_3_specialized+0x24>
60006174:	f119 0201 	adds.w	r2, r9, #1
60006178:	f144 0300 	adc.w	r3, r4, #0
6000617c:	f1b9 0503 	subs.w	r5, r9, #3
60006180:	f174 0400 	sbcs.w	r4, r4, #0
60006184:	f100 00c0 	add.w	r0, r0, #192	; 0xc0
60006188:	4691      	mov	r9, r2
6000618a:	461c      	mov	r4, r3
6000618c:	f4ff ae8a 	bcc.w	60005ea4 <libjit_max_pool_f_3_specialized+0x1c>
60006190:	f11c 0001 	adds.w	r0, ip, #1
60006194:	f14e 0200 	adc.w	r2, lr, #0
60006198:	f1bc 0303 	subs.w	r3, ip, #3
6000619c:	f17e 0300 	sbcs.w	r3, lr, #0
600061a0:	f508 6828 	add.w	r8, r8, #2688	; 0xa80
600061a4:	4684      	mov	ip, r0
600061a6:	4696      	mov	lr, r2
600061a8:	d301      	bcc.n	600061ae <libjit_max_pool_f_3_specialized+0x326>
600061aa:	e8bd 83f0 	ldmia.w	sp!, {r4, r5, r6, r7, r8, r9, pc}
600061ae:	e675      	b.n	60005e9c <libjit_max_pool_f_3_specialized+0x14>
600061b0:	ff7fffff 	.word	0xff7fffff

600061b4 <libjit_fc_f_4_specialized>:
600061b4:	b5f0      	push	{r4, r5, r6, r7, lr}
600061b6:	f04f 0c00 	mov.w	ip, #0
600061ba:	f04f 0e00 	mov.w	lr, #0
600061be:	bf00      	nop
600061c0:	eb03 048c 	add.w	r4, r3, ip, lsl #2
600061c4:	ed94 0a00 	vldr	s0, [r4]
600061c8:	2400      	movs	r4, #0
600061ca:	2500      	movs	r5, #0
600061cc:	eb01 0684 	add.w	r6, r1, r4, lsl #2
600061d0:	ed96 1a00 	vldr	s2, [r6]
600061d4:	eb04 0684 	add.w	r6, r4, r4, lsl #2
600061d8:	eb0c 0646 	add.w	r6, ip, r6, lsl #1
600061dc:	eb02 0686 	add.w	r6, r2, r6, lsl #2
600061e0:	ed96 2a00 	vldr	s4, [r6]
600061e4:	f044 0601 	orr.w	r6, r4, #1
600061e8:	eb01 0786 	add.w	r7, r1, r6, lsl #2
600061ec:	eb06 0686 	add.w	r6, r6, r6, lsl #2
600061f0:	eb0c 0646 	add.w	r6, ip, r6, lsl #1
600061f4:	eb02 0686 	add.w	r6, r2, r6, lsl #2
600061f8:	ed96 3a00 	vldr	s6, [r6]
600061fc:	f044 0602 	orr.w	r6, r4, #2
60006200:	ee21 1a02 	vmul.f32	s2, s2, s4
60006204:	ed97 2a00 	vldr	s4, [r7]
60006208:	eb01 0786 	add.w	r7, r1, r6, lsl #2
6000620c:	eb06 0686 	add.w	r6, r6, r6, lsl #2
60006210:	eb0c 0646 	add.w	r6, ip, r6, lsl #1
60006214:	eb02 0686 	add.w	r6, r2, r6, lsl #2
60006218:	ee30 0a01 	vadd.f32	s0, s0, s2
6000621c:	ee22 1a03 	vmul.f32	s2, s4, s6
60006220:	ed96 3a00 	vldr	s6, [r6]
60006224:	f044 0603 	orr.w	r6, r4, #3
60006228:	ed97 2a00 	vldr	s4, [r7]
6000622c:	eb01 0786 	add.w	r7, r1, r6, lsl #2
60006230:	eb06 0686 	add.w	r6, r6, r6, lsl #2
60006234:	eb0c 0646 	add.w	r6, ip, r6, lsl #1
60006238:	eb02 0686 	add.w	r6, r2, r6, lsl #2
6000623c:	ee30 0a01 	vadd.f32	s0, s0, s2
60006240:	ee22 1a03 	vmul.f32	s2, s4, s6
60006244:	ed96 3a00 	vldr	s6, [r6]
60006248:	f044 0604 	orr.w	r6, r4, #4
6000624c:	ed97 2a00 	vldr	s4, [r7]
60006250:	eb01 0786 	add.w	r7, r1, r6, lsl #2
60006254:	eb06 0686 	add.w	r6, r6, r6, lsl #2
60006258:	eb0c 0646 	add.w	r6, ip, r6, lsl #1
6000625c:	eb02 0686 	add.w	r6, r2, r6, lsl #2
60006260:	ee30 0a01 	vadd.f32	s0, s0, s2
60006264:	ee22 1a03 	vmul.f32	s2, s4, s6
60006268:	ed96 3a00 	vldr	s6, [r6]
6000626c:	f044 0605 	orr.w	r6, r4, #5
60006270:	ed97 2a00 	vldr	s4, [r7]
60006274:	eb01 0786 	add.w	r7, r1, r6, lsl #2
60006278:	eb06 0686 	add.w	r6, r6, r6, lsl #2
6000627c:	eb0c 0646 	add.w	r6, ip, r6, lsl #1
60006280:	eb02 0686 	add.w	r6, r2, r6, lsl #2
60006284:	ee30 0a01 	vadd.f32	s0, s0, s2
60006288:	ee22 1a03 	vmul.f32	s2, s4, s6
6000628c:	ed96 3a00 	vldr	s6, [r6]
60006290:	f044 0606 	orr.w	r6, r4, #6
60006294:	ed97 2a00 	vldr	s4, [r7]
60006298:	eb01 0786 	add.w	r7, r1, r6, lsl #2
6000629c:	eb06 0686 	add.w	r6, r6, r6, lsl #2
600062a0:	eb0c 0646 	add.w	r6, ip, r6, lsl #1
600062a4:	eb02 0686 	add.w	r6, r2, r6, lsl #2
600062a8:	ee30 0a01 	vadd.f32	s0, s0, s2
600062ac:	ee22 1a03 	vmul.f32	s2, s4, s6
600062b0:	ed96 3a00 	vldr	s6, [r6]
600062b4:	f044 0607 	orr.w	r6, r4, #7
600062b8:	ed97 2a00 	vldr	s4, [r7]
600062bc:	eb01 0786 	add.w	r7, r1, r6, lsl #2
600062c0:	eb06 0686 	add.w	r6, r6, r6, lsl #2
600062c4:	eb0c 0646 	add.w	r6, ip, r6, lsl #1
600062c8:	eb02 0686 	add.w	r6, r2, r6, lsl #2
600062cc:	ee30 0a01 	vadd.f32	s0, s0, s2
600062d0:	ee22 1a03 	vmul.f32	s2, s4, s6
600062d4:	ed96 3a00 	vldr	s6, [r6]
600062d8:	f044 0608 	orr.w	r6, r4, #8
600062dc:	ed97 2a00 	vldr	s4, [r7]
600062e0:	eb01 0786 	add.w	r7, r1, r6, lsl #2
600062e4:	eb06 0686 	add.w	r6, r6, r6, lsl #2
600062e8:	eb0c 0646 	add.w	r6, ip, r6, lsl #1
600062ec:	eb02 0686 	add.w	r6, r2, r6, lsl #2
600062f0:	ee30 0a01 	vadd.f32	s0, s0, s2
600062f4:	ee22 1a03 	vmul.f32	s2, s4, s6
600062f8:	ed96 3a00 	vldr	s6, [r6]
600062fc:	f044 0609 	orr.w	r6, r4, #9
60006300:	ed97 2a00 	vldr	s4, [r7]
60006304:	eb01 0786 	add.w	r7, r1, r6, lsl #2
60006308:	eb06 0686 	add.w	r6, r6, r6, lsl #2
6000630c:	eb0c 0646 	add.w	r6, ip, r6, lsl #1
60006310:	eb02 0686 	add.w	r6, r2, r6, lsl #2
60006314:	ee30 0a01 	vadd.f32	s0, s0, s2
60006318:	ee22 1a03 	vmul.f32	s2, s4, s6
6000631c:	ed96 3a00 	vldr	s6, [r6]
60006320:	f044 060a 	orr.w	r6, r4, #10
60006324:	ed97 2a00 	vldr	s4, [r7]
60006328:	eb01 0786 	add.w	r7, r1, r6, lsl #2
6000632c:	eb06 0686 	add.w	r6, r6, r6, lsl #2
60006330:	eb0c 0646 	add.w	r6, ip, r6, lsl #1
60006334:	eb02 0686 	add.w	r6, r2, r6, lsl #2
60006338:	ee30 0a01 	vadd.f32	s0, s0, s2
6000633c:	ee22 1a03 	vmul.f32	s2, s4, s6
60006340:	ed96 3a00 	vldr	s6, [r6]
60006344:	f044 060b 	orr.w	r6, r4, #11
60006348:	ed97 2a00 	vldr	s4, [r7]
6000634c:	eb01 0786 	add.w	r7, r1, r6, lsl #2
60006350:	eb06 0686 	add.w	r6, r6, r6, lsl #2
60006354:	eb0c 0646 	add.w	r6, ip, r6, lsl #1
60006358:	eb02 0686 	add.w	r6, r2, r6, lsl #2
6000635c:	ee30 0a01 	vadd.f32	s0, s0, s2
60006360:	ee22 1a03 	vmul.f32	s2, s4, s6
60006364:	ed96 3a00 	vldr	s6, [r6]
60006368:	f044 060c 	orr.w	r6, r4, #12
6000636c:	ed97 2a00 	vldr	s4, [r7]
60006370:	eb01 0786 	add.w	r7, r1, r6, lsl #2
60006374:	eb06 0686 	add.w	r6, r6, r6, lsl #2
60006378:	eb0c 0646 	add.w	r6, ip, r6, lsl #1
6000637c:	eb02 0686 	add.w	r6, r2, r6, lsl #2
60006380:	ee30 0a01 	vadd.f32	s0, s0, s2
60006384:	ee22 1a03 	vmul.f32	s2, s4, s6
60006388:	ed96 3a00 	vldr	s6, [r6]
6000638c:	f044 060d 	orr.w	r6, r4, #13
60006390:	ed97 2a00 	vldr	s4, [r7]
60006394:	eb01 0786 	add.w	r7, r1, r6, lsl #2
60006398:	eb06 0686 	add.w	r6, r6, r6, lsl #2
6000639c:	eb0c 0646 	add.w	r6, ip, r6, lsl #1
600063a0:	eb02 0686 	add.w	r6, r2, r6, lsl #2
600063a4:	ee30 0a01 	vadd.f32	s0, s0, s2
600063a8:	ee22 1a03 	vmul.f32	s2, s4, s6
600063ac:	ed96 3a00 	vldr	s6, [r6]
600063b0:	f044 060e 	orr.w	r6, r4, #14
600063b4:	ed97 2a00 	vldr	s4, [r7]
600063b8:	eb01 0786 	add.w	r7, r1, r6, lsl #2
600063bc:	eb06 0686 	add.w	r6, r6, r6, lsl #2
600063c0:	eb0c 0646 	add.w	r6, ip, r6, lsl #1
600063c4:	eb02 0686 	add.w	r6, r2, r6, lsl #2
600063c8:	ee30 0a01 	vadd.f32	s0, s0, s2
600063cc:	ee22 1a03 	vmul.f32	s2, s4, s6
600063d0:	ed96 3a00 	vldr	s6, [r6]
600063d4:	f044 060f 	orr.w	r6, r4, #15
600063d8:	ed97 2a00 	vldr	s4, [r7]
600063dc:	eb01 0786 	add.w	r7, r1, r6, lsl #2
600063e0:	eb06 0686 	add.w	r6, r6, r6, lsl #2
600063e4:	eb0c 0646 	add.w	r6, ip, r6, lsl #1
600063e8:	eb02 0686 	add.w	r6, r2, r6, lsl #2
600063ec:	ee30 0a01 	vadd.f32	s0, s0, s2
600063f0:	ee22 1a03 	vmul.f32	s2, s4, s6
600063f4:	ed97 2a00 	vldr	s4, [r7]
600063f8:	ed96 3a00 	vldr	s6, [r6]
600063fc:	f114 0610 	adds.w	r6, r4, #16
60006400:	f145 0700 	adc.w	r7, r5, #0
60006404:	3cf0      	subs	r4, #240	; 0xf0
60006406:	ee30 0a01 	vadd.f32	s0, s0, s2
6000640a:	ee22 1a03 	vmul.f32	s2, s4, s6
6000640e:	f175 0400 	sbcs.w	r4, r5, #0
60006412:	ee30 0a01 	vadd.f32	s0, s0, s2
60006416:	4634      	mov	r4, r6
60006418:	463d      	mov	r5, r7
6000641a:	f4ff aed7 	bcc.w	600061cc <libjit_fc_f_4_specialized+0x18>
6000641e:	eb00 048c 	add.w	r4, r0, ip, lsl #2
60006422:	ed84 0a00 	vstr	s0, [r4]
60006426:	f11c 0401 	adds.w	r4, ip, #1
6000642a:	f14e 0500 	adc.w	r5, lr, #0
6000642e:	f1bc 0709 	subs.w	r7, ip, #9
60006432:	f17e 0700 	sbcs.w	r7, lr, #0
60006436:	46a4      	mov	ip, r4
60006438:	46ae      	mov	lr, r5
6000643a:	d300      	bcc.n	6000643e <libjit_fc_f_4_specialized+0x28a>
6000643c:	bdf0      	pop	{r4, r5, r6, r7, pc}
6000643e:	e6bf      	b.n	600061c0 <libjit_fc_f_4_specialized+0xc>

60006440 <_initio>:
60006440:	b510      	push	{r4, lr}
60006442:	4a17      	ldr	r2, [pc, #92]	; (600064a0 <_initio+0x60>)
60006444:	2000      	movs	r0, #0
60006446:	4917      	ldr	r1, [pc, #92]	; (600064a4 <_initio+0x64>)
60006448:	f000 f992 	bl	60006770 <_fdopen>
6000644c:	f44f 7380 	mov.w	r3, #256	; 0x100
60006450:	f44f 6280 	mov.w	r2, #1024	; 0x400
60006454:	2100      	movs	r1, #0
60006456:	4812      	ldr	r0, [pc, #72]	; (600064a0 <_initio+0x60>)
60006458:	f000 f947 	bl	600066ea <setvbuf>
6000645c:	4a12      	ldr	r2, [pc, #72]	; (600064a8 <_initio+0x68>)
6000645e:	4913      	ldr	r1, [pc, #76]	; (600064ac <_initio+0x6c>)
60006460:	2001      	movs	r0, #1
60006462:	f000 f985 	bl	60006770 <_fdopen>
60006466:	f44f 7380 	mov.w	r3, #256	; 0x100
6000646a:	f44f 6280 	mov.w	r2, #1024	; 0x400
6000646e:	2100      	movs	r1, #0
60006470:	480d      	ldr	r0, [pc, #52]	; (600064a8 <_initio+0x68>)
60006472:	f000 f93a 	bl	600066ea <setvbuf>
60006476:	4b0e      	ldr	r3, [pc, #56]	; (600064b0 <_initio+0x70>)
60006478:	681b      	ldr	r3, [r3, #0]
6000647a:	2b02      	cmp	r3, #2
6000647c:	dd0e      	ble.n	6000649c <_initio+0x5c>
6000647e:	4a0d      	ldr	r2, [pc, #52]	; (600064b4 <_initio+0x74>)
60006480:	2002      	movs	r0, #2
60006482:	490a      	ldr	r1, [pc, #40]	; (600064ac <_initio+0x6c>)
60006484:	f000 f974 	bl	60006770 <_fdopen>
60006488:	f44f 7380 	mov.w	r3, #256	; 0x100
6000648c:	f44f 6280 	mov.w	r2, #1024	; 0x400
60006490:	2100      	movs	r1, #0
60006492:	4808      	ldr	r0, [pc, #32]	; (600064b4 <_initio+0x74>)
60006494:	e8bd 4010 	ldmia.w	sp!, {r4, lr}
60006498:	f000 b927 	b.w	600066ea <setvbuf>
6000649c:	bd10      	pop	{r4, pc}
6000649e:	bf00      	nop
600064a0:	8000f1cc 	.word	0x8000f1cc
600064a4:	60006de0 	.word	0x60006de0
600064a8:	8000f208 	.word	0x8000f208
600064ac:	60006de2 	.word	0x60006de2
600064b0:	60006ddc 	.word	0x60006ddc
600064b4:	8000f244 	.word	0x8000f244

600064b8 <fflush>:
600064b8:	b5f8      	push	{r3, r4, r5, r6, r7, lr}
600064ba:	4604      	mov	r4, r0
600064bc:	b938      	cbnz	r0, 600064ce <fflush+0x16>
600064be:	4b0b      	ldr	r3, [pc, #44]	; (600064ec <fflush+0x34>)
600064c0:	4605      	mov	r5, r0
600064c2:	4e0b      	ldr	r6, [pc, #44]	; (600064f0 <fflush+0x38>)
600064c4:	681f      	ldr	r7, [r3, #0]
600064c6:	42a7      	cmp	r7, r4
600064c8:	dc05      	bgt.n	600064d6 <fflush+0x1e>
600064ca:	4628      	mov	r0, r5
600064cc:	bdf8      	pop	{r3, r4, r5, r6, r7, pc}
600064ce:	e8bd 40f8 	ldmia.w	sp!, {r3, r4, r5, r6, r7, lr}
600064d2:	f000 b9b7 	b.w	60006844 <_do_fflush>
600064d6:	4630      	mov	r0, r6
600064d8:	3401      	adds	r4, #1
600064da:	f000 f9b3 	bl	60006844 <_do_fflush>
600064de:	2800      	cmp	r0, #0
600064e0:	f106 063c 	add.w	r6, r6, #60	; 0x3c
600064e4:	bf18      	it	ne
600064e6:	f04f 35ff 	movne.w	r5, #4294967295	; 0xffffffff
600064ea:	e7ec      	b.n	600064c6 <fflush+0xe>
600064ec:	60006ddc 	.word	0x60006ddc
600064f0:	8000f1cc 	.word	0x8000f1cc

600064f4 <fseek>:
600064f4:	e92d 43f8 	stmdb	sp!, {r3, r4, r5, r6, r7, r8, r9, lr}
600064f8:	68c6      	ldr	r6, [r0, #12]
600064fa:	4604      	mov	r4, r0
600064fc:	4b3c      	ldr	r3, [pc, #240]	; (600065f0 <fseek+0xfc>)
600064fe:	460d      	mov	r5, r1
60006500:	4690      	mov	r8, r2
60006502:	4033      	ands	r3, r6
60006504:	b91b      	cbnz	r3, 6000650e <fseek+0x1a>
60006506:	2702      	movs	r7, #2
60006508:	4638      	mov	r0, r7
6000650a:	e8bd 83f8 	ldmia.w	sp!, {r3, r4, r5, r6, r7, r8, r9, pc}
6000650e:	f8d0 9014 	ldr.w	r9, [r0, #20]
60006512:	4648      	mov	r0, r9
60006514:	f000 fb8f 	bl	60006c36 <__sys_istty>
60006518:	4607      	mov	r7, r0
6000651a:	2800      	cmp	r0, #0
6000651c:	d1f3      	bne.n	60006506 <fseek+0x12>
6000651e:	f1b8 0f01 	cmp.w	r8, #1
60006522:	d02c      	beq.n	6000657e <fseek+0x8a>
60006524:	f1b8 0f02 	cmp.w	r8, #2
60006528:	d02e      	beq.n	60006588 <fseek+0x94>
6000652a:	f1b8 0f00 	cmp.w	r8, #0
6000652e:	d1ea      	bne.n	60006506 <fseek+0x12>
60006530:	2d00      	cmp	r5, #0
60006532:	dbe8      	blt.n	60006506 <fseek+0x12>
60006534:	04b0      	lsls	r0, r6, #18
60006536:	d504      	bpl.n	60006542 <fseek+0x4e>
60006538:	6823      	ldr	r3, [r4, #0]
6000653a:	6ae2      	ldr	r2, [r4, #44]	; 0x2c
6000653c:	429a      	cmp	r2, r3
6000653e:	bf38      	it	cc
60006540:	62e3      	strcc	r3, [r4, #44]	; 0x2c
60006542:	69a1      	ldr	r1, [r4, #24]
60006544:	42a9      	cmp	r1, r5
60006546:	dc0e      	bgt.n	60006566 <fseek+0x72>
60006548:	6823      	ldr	r3, [r4, #0]
6000654a:	6ae2      	ldr	r2, [r4, #44]	; 0x2c
6000654c:	4293      	cmp	r3, r2
6000654e:	bf38      	it	cc
60006550:	4613      	movcc	r3, r2
60006552:	6922      	ldr	r2, [r4, #16]
60006554:	1858      	adds	r0, r3, r1
60006556:	1a80      	subs	r0, r0, r2
60006558:	42a8      	cmp	r0, r5
6000655a:	db04      	blt.n	60006566 <fseek+0x72>
6000655c:	6b20      	ldr	r0, [r4, #48]	; 0x30
6000655e:	eb01 0c00 	add.w	ip, r1, r0
60006562:	45ac      	cmp	ip, r5
60006564:	dc34      	bgt.n	600065d0 <fseek+0xdc>
60006566:	2300      	movs	r3, #0
60006568:	f046 0620 	orr.w	r6, r6, #32
6000656c:	62a5      	str	r5, [r4, #40]	; 0x28
6000656e:	e9c4 3301 	strd	r3, r3, [r4, #4]
60006572:	f426 2603 	bic.w	r6, r6, #536576	; 0x83000
60006576:	f026 0640 	bic.w	r6, r6, #64	; 0x40
6000657a:	60e6      	str	r6, [r4, #12]
6000657c:	e7c4      	b.n	60006508 <fseek+0x14>
6000657e:	4620      	mov	r0, r4
60006580:	f000 f838 	bl	600065f4 <ftell>
60006584:	4405      	add	r5, r0
60006586:	e7d3      	b.n	60006530 <fseek+0x3c>
60006588:	4648      	mov	r0, r9
6000658a:	f000 fb51 	bl	60006c30 <__sys_flen>
6000658e:	f1b0 0c00 	subs.w	ip, r0, #0
60006592:	68e2      	ldr	r2, [r4, #12]
60006594:	da04      	bge.n	600065a0 <fseek+0xac>
60006596:	f042 0280 	orr.w	r2, r2, #128	; 0x80
6000659a:	2701      	movs	r7, #1
6000659c:	60e2      	str	r2, [r4, #12]
6000659e:	e7b3      	b.n	60006508 <fseek+0x14>
600065a0:	6823      	ldr	r3, [r4, #0]
600065a2:	4618      	mov	r0, r3
600065a4:	69a3      	ldr	r3, [r4, #24]
600065a6:	4619      	mov	r1, r3
600065a8:	6ae3      	ldr	r3, [r4, #44]	; 0x2c
600065aa:	4298      	cmp	r0, r3
600065ac:	bf2c      	ite	cs
600065ae:	1809      	addcs	r1, r1, r0
600065b0:	18c9      	addcc	r1, r1, r3
600065b2:	0692      	lsls	r2, r2, #26
600065b4:	460b      	mov	r3, r1
600065b6:	6921      	ldr	r1, [r4, #16]
600065b8:	eba3 0301 	sub.w	r3, r3, r1
600065bc:	d503      	bpl.n	600065c6 <fseek+0xd2>
600065be:	6aa2      	ldr	r2, [r4, #40]	; 0x28
600065c0:	4293      	cmp	r3, r2
600065c2:	bfb8      	it	lt
600065c4:	4613      	movlt	r3, r2
600065c6:	4563      	cmp	r3, ip
600065c8:	bfac      	ite	ge
600065ca:	18ed      	addge	r5, r5, r3
600065cc:	4465      	addlt	r5, ip
600065ce:	e7af      	b.n	60006530 <fseek+0x3c>
600065d0:	1a6d      	subs	r5, r5, r1
600065d2:	07b1      	lsls	r1, r6, #30
600065d4:	bf44      	itt	mi
600065d6:	1a28      	submi	r0, r5, r0
600065d8:	60a0      	strmi	r0, [r4, #8]
600065da:	07f1      	lsls	r1, r6, #31
600065dc:	f026 0620 	bic.w	r6, r6, #32
600065e0:	bf44      	itt	mi
600065e2:	1a9b      	submi	r3, r3, r2
600065e4:	1aeb      	submi	r3, r5, r3
600065e6:	4415      	add	r5, r2
600065e8:	bf48      	it	mi
600065ea:	6063      	strmi	r3, [r4, #4]
600065ec:	6025      	str	r5, [r4, #0]
600065ee:	e7c0      	b.n	60006572 <fseek+0x7e>
600065f0:	00100003 	.word	0x00100003

600065f4 <ftell>:
600065f4:	68c3      	ldr	r3, [r0, #12]
600065f6:	079a      	lsls	r2, r3, #30
600065f8:	d105      	bne.n	60006606 <ftell+0x12>
600065fa:	4b0e      	ldr	r3, [pc, #56]	; (60006634 <ftell+0x40>)
600065fc:	2221      	movs	r2, #33	; 0x21
600065fe:	f04f 30ff 	mov.w	r0, #4294967295	; 0xffffffff
60006602:	601a      	str	r2, [r3, #0]
60006604:	4770      	bx	lr
60006606:	f003 0220 	and.w	r2, r3, #32
6000660a:	031b      	lsls	r3, r3, #12
6000660c:	d509      	bpl.n	60006622 <ftell+0x2e>
6000660e:	b112      	cbz	r2, 60006616 <ftell+0x22>
60006610:	6a80      	ldr	r0, [r0, #40]	; 0x28
60006612:	3801      	subs	r0, #1
60006614:	4770      	bx	lr
60006616:	6803      	ldr	r3, [r0, #0]
60006618:	6982      	ldr	r2, [r0, #24]
6000661a:	6900      	ldr	r0, [r0, #16]
6000661c:	4413      	add	r3, r2
6000661e:	1a18      	subs	r0, r3, r0
60006620:	e7f7      	b.n	60006612 <ftell+0x1e>
60006622:	b10a      	cbz	r2, 60006628 <ftell+0x34>
60006624:	6a80      	ldr	r0, [r0, #40]	; 0x28
60006626:	4770      	bx	lr
60006628:	6803      	ldr	r3, [r0, #0]
6000662a:	6982      	ldr	r2, [r0, #24]
6000662c:	6900      	ldr	r0, [r0, #16]
6000662e:	4413      	add	r3, r2
60006630:	1a18      	subs	r0, r3, r0
60006632:	4770      	bx	lr
60006634:	8000f1c8 	.word	0x8000f1c8

60006638 <_Cwritebuf>:
60006638:	e92d 41f0 	stmdb	sp!, {r4, r5, r6, r7, r8, lr}
6000663c:	68d5      	ldr	r5, [r2, #12]
6000663e:	4680      	mov	r8, r0
60006640:	460e      	mov	r6, r1
60006642:	4614      	mov	r4, r2
60006644:	02eb      	lsls	r3, r5, #11
60006646:	6957      	ldr	r7, [r2, #20]
60006648:	d505      	bpl.n	60006656 <_Cwritebuf+0x1e>
6000664a:	f045 0510 	orr.w	r5, r5, #16
6000664e:	4638      	mov	r0, r7
60006650:	f000 faee 	bl	60006c30 <__sys_flen>
60006654:	61a0      	str	r0, [r4, #24]
60006656:	4b12      	ldr	r3, [pc, #72]	; (600066a0 <_Cwritebuf+0x68>)
60006658:	402b      	ands	r3, r5
6000665a:	b18b      	cbz	r3, 60006680 <_Cwritebuf+0x48>
6000665c:	69a1      	ldr	r1, [r4, #24]
6000665e:	4638      	mov	r0, r7
60006660:	f000 faef 	bl	60006c42 <__sys_seek>
60006664:	2800      	cmp	r0, #0
60006666:	da06      	bge.n	60006676 <_Cwritebuf+0x3e>
60006668:	68e3      	ldr	r3, [r4, #12]
6000666a:	f04f 30ff 	mov.w	r0, #4294967295	; 0xffffffff
6000666e:	f043 0380 	orr.w	r3, r3, #128	; 0x80
60006672:	60e3      	str	r3, [r4, #12]
60006674:	e011      	b.n	6000669a <_Cwritebuf+0x62>
60006676:	f425 3500 	bic.w	r5, r5, #131072	; 0x20000
6000667a:	f025 0510 	bic.w	r5, r5, #16
6000667e:	60e5      	str	r5, [r4, #12]
60006680:	4632      	mov	r2, r6
60006682:	4641      	mov	r1, r8
60006684:	4638      	mov	r0, r7
60006686:	f000 fae2 	bl	60006c4e <__sys_write>
6000668a:	f020 4100 	bic.w	r1, r0, #2147483648	; 0x80000000
6000668e:	1a76      	subs	r6, r6, r1
60006690:	69a1      	ldr	r1, [r4, #24]
60006692:	440e      	add	r6, r1
60006694:	61a6      	str	r6, [r4, #24]
60006696:	2800      	cmp	r0, #0
60006698:	d1e6      	bne.n	60006668 <_Cwritebuf+0x30>
6000669a:	e8bd 81f0 	ldmia.w	sp!, {r4, r5, r6, r7, r8, pc}
6000669e:	bf00      	nop
600066a0:	00020010 	.word	0x00020010

600066a4 <__main>:
600066a4:	b508      	push	{r3, lr}
600066a6:	f7ff fecb 	bl	60006440 <_initio>
600066aa:	e8bd 4008 	ldmia.w	sp!, {r3, lr}
600066ae:	f7fd b9bd 	b.w	60003a2c <main>

600066b2 <memcpy>:
600066b2:	f000 ba87 	b.w	60006bc4 <__aeabi_memcpy>

600066b6 <memset>:
600066b6:	f000 ba9f 	b.w	60006bf8 <__aeabi_lowlevel_memset>

600066ba <free>:
600066ba:	b1a8      	cbz	r0, 600066e8 <free+0x2e>
600066bc:	f04f 5380 	mov.w	r3, #268435456	; 0x10000000
600066c0:	f840 3c0c 	str.w	r3, [r0, #-12]
600066c4:	f850 2c04 	ldr.w	r2, [r0, #-4]
600066c8:	b172      	cbz	r2, 600066e8 <free+0x2e>
600066ca:	6813      	ldr	r3, [r2, #0]
600066cc:	f1b3 5f80 	cmp.w	r3, #268435456	; 0x10000000
600066d0:	d10a      	bne.n	600066e8 <free+0x2e>
600066d2:	f850 3c08 	ldr.w	r3, [r0, #-8]
600066d6:	6851      	ldr	r1, [r2, #4]
600066d8:	3303      	adds	r3, #3
600066da:	440b      	add	r3, r1
600066dc:	f840 3c08 	str.w	r3, [r0, #-8]
600066e0:	6893      	ldr	r3, [r2, #8]
600066e2:	f840 3c04 	str.w	r3, [r0, #-4]
600066e6:	e7ed      	b.n	600066c4 <free+0xa>
600066e8:	4770      	bx	lr

600066ea <setvbuf>:
600066ea:	b570      	push	{r4, r5, r6, lr}
600066ec:	68c4      	ldr	r4, [r0, #12]
600066ee:	07a5      	lsls	r5, r4, #30
600066f0:	d008      	beq.n	60006704 <setvbuf+0x1a>
600066f2:	f5b2 7f00 	cmp.w	r2, #512	; 0x200
600066f6:	d011      	beq.n	6000671c <setvbuf+0x32>
600066f8:	f5b2 6f80 	cmp.w	r2, #1024	; 0x400
600066fc:	d004      	beq.n	60006708 <setvbuf+0x1e>
600066fe:	f5b2 7f80 	cmp.w	r2, #256	; 0x100
60006702:	d00b      	beq.n	6000671c <setvbuf+0x32>
60006704:	2001      	movs	r0, #1
60006706:	e008      	b.n	6000671a <setvbuf+0x30>
60006708:	f100 0124 	add.w	r1, r0, #36	; 0x24
6000670c:	2301      	movs	r3, #1
6000670e:	4322      	orrs	r2, r4
60006710:	6101      	str	r1, [r0, #16]
60006712:	6001      	str	r1, [r0, #0]
60006714:	61c3      	str	r3, [r0, #28]
60006716:	60c2      	str	r2, [r0, #12]
60006718:	2000      	movs	r0, #0
6000671a:	bd70      	pop	{r4, r5, r6, pc}
6000671c:	1e5e      	subs	r6, r3, #1
6000671e:	f06f 457f 	mvn.w	r5, #4278190080	; 0xff000000
60006722:	42ae      	cmp	r6, r5
60006724:	d3f3      	bcc.n	6000670e <setvbuf+0x24>
60006726:	e7ed      	b.n	60006704 <setvbuf+0x1a>

60006728 <strlen>:
60006728:	1c43      	adds	r3, r0, #1
6000672a:	b510      	push	{r4, lr}
6000672c:	0782      	lsls	r2, r0, #30
6000672e:	4604      	mov	r4, r0
60006730:	d114      	bne.n	6000675c <strlen+0x34>
60006732:	4620      	mov	r0, r4
60006734:	f854 2b04 	ldr.w	r2, [r4], #4
60006738:	f1a2 3101 	sub.w	r1, r2, #16843009	; 0x1010101
6000673c:	ea21 0102 	bic.w	r1, r1, r2
60006740:	f011 3f80 	tst.w	r1, #2155905152	; 0x80808080
60006744:	d0f5      	beq.n	60006732 <strlen+0xa>
60006746:	b2d1      	uxtb	r1, r2
60006748:	b181      	cbz	r1, 6000676c <strlen+0x44>
6000674a:	f412 4f7f 	tst.w	r2, #65280	; 0xff00
6000674e:	d00b      	beq.n	60006768 <strlen+0x40>
60006750:	f412 0f7f 	tst.w	r2, #16711680	; 0xff0000
60006754:	bf14      	ite	ne
60006756:	4620      	movne	r0, r4
60006758:	3003      	addeq	r0, #3
6000675a:	e003      	b.n	60006764 <strlen+0x3c>
6000675c:	f810 2b01 	ldrb.w	r2, [r0], #1
60006760:	2a00      	cmp	r2, #0
60006762:	d1e3      	bne.n	6000672c <strlen+0x4>
60006764:	1ac0      	subs	r0, r0, r3
60006766:	bd10      	pop	{r4, pc}
60006768:	3002      	adds	r0, #2
6000676a:	e7fb      	b.n	60006764 <strlen+0x3c>
6000676c:	3001      	adds	r0, #1
6000676e:	e7f9      	b.n	60006764 <strlen+0x3c>

60006770 <_fdopen>:
60006770:	b570      	push	{r4, r5, r6, lr}
60006772:	460d      	mov	r5, r1
60006774:	4606      	mov	r6, r0
60006776:	4610      	mov	r0, r2
60006778:	4614      	mov	r4, r2
6000677a:	f000 f82d 	bl	600067d8 <fclose>
6000677e:	782b      	ldrb	r3, [r5, #0]
60006780:	2b72      	cmp	r3, #114	; 0x72
60006782:	d017      	beq.n	600067b4 <_fdopen+0x44>
60006784:	2b77      	cmp	r3, #119	; 0x77
60006786:	d018      	beq.n	600067ba <_fdopen+0x4a>
60006788:	2b61      	cmp	r3, #97	; 0x61
6000678a:	d123      	bne.n	600067d4 <_fdopen+0x64>
6000678c:	2308      	movs	r3, #8
6000678e:	f248 0202 	movw	r2, #32770	; 0x8002
60006792:	f815 1f01 	ldrb.w	r1, [r5, #1]!
60006796:	292b      	cmp	r1, #43	; 0x2b
60006798:	d012      	beq.n	600067c0 <_fdopen+0x50>
6000679a:	2962      	cmp	r1, #98	; 0x62
6000679c:	d015      	beq.n	600067ca <_fdopen+0x5a>
6000679e:	071b      	lsls	r3, r3, #28
600067a0:	60e2      	str	r2, [r4, #12]
600067a2:	6166      	str	r6, [r4, #20]
600067a4:	d504      	bpl.n	600067b0 <_fdopen+0x40>
600067a6:	2202      	movs	r2, #2
600067a8:	2100      	movs	r1, #0
600067aa:	4620      	mov	r0, r4
600067ac:	f7ff fea2 	bl	600064f4 <fseek>
600067b0:	4620      	mov	r0, r4
600067b2:	bd70      	pop	{r4, r5, r6, pc}
600067b4:	2300      	movs	r3, #0
600067b6:	2201      	movs	r2, #1
600067b8:	e7eb      	b.n	60006792 <_fdopen+0x22>
600067ba:	2304      	movs	r3, #4
600067bc:	2202      	movs	r2, #2
600067be:	e7e8      	b.n	60006792 <_fdopen+0x22>
600067c0:	f042 0203 	orr.w	r2, r2, #3
600067c4:	f043 0302 	orr.w	r3, r3, #2
600067c8:	e7e3      	b.n	60006792 <_fdopen+0x22>
600067ca:	f042 0204 	orr.w	r2, r2, #4
600067ce:	f043 0301 	orr.w	r3, r3, #1
600067d2:	e7de      	b.n	60006792 <_fdopen+0x22>
600067d4:	2400      	movs	r4, #0
600067d6:	e7eb      	b.n	600067b0 <_fdopen+0x40>

600067d8 <fclose>:
600067d8:	b5f0      	push	{r4, r5, r6, r7, lr}
600067da:	68c4      	ldr	r4, [r0, #12]
600067dc:	b089      	sub	sp, #36	; 0x24
600067de:	4605      	mov	r5, r0
600067e0:	07a1      	lsls	r1, r4, #30
600067e2:	d022      	beq.n	6000682a <fclose+0x52>
600067e4:	0722      	lsls	r2, r4, #28
600067e6:	d418      	bmi.n	6000681a <fclose+0x42>
600067e8:	e9d0 6704 	ldrd	r6, r7, [r0, #16]
600067ec:	f7ff fe64 	bl	600064b8 <fflush>
600067f0:	4638      	mov	r0, r7
600067f2:	f000 fa1a 	bl	60006c2a <__sys_close>
600067f6:	0523      	lsls	r3, r4, #20
600067f8:	d502      	bpl.n	60006800 <fclose+0x28>
600067fa:	4630      	mov	r0, r6
600067fc:	f7ff ff5d 	bl	600066ba <free>
60006800:	0da4      	lsrs	r4, r4, #22
60006802:	05a4      	lsls	r4, r4, #22
60006804:	f114 4fa5 	cmn.w	r4, #1384120320	; 0x52800000
60006808:	d107      	bne.n	6000681a <fclose+0x42>
6000680a:	2220      	movs	r2, #32
6000680c:	6a29      	ldr	r1, [r5, #32]
6000680e:	4668      	mov	r0, sp
60006810:	f000 fa1a 	bl	60006c48 <__sys_tmpnam>
60006814:	4668      	mov	r0, sp
60006816:	f000 f80b 	bl	60006830 <remove>
6000681a:	223c      	movs	r2, #60	; 0x3c
6000681c:	2100      	movs	r1, #0
6000681e:	4628      	mov	r0, r5
60006820:	f7ff ff49 	bl	600066b6 <memset>
60006824:	2000      	movs	r0, #0
60006826:	b009      	add	sp, #36	; 0x24
60006828:	bdf0      	pop	{r4, r5, r6, r7, pc}
6000682a:	f04f 30ff 	mov.w	r0, #4294967295	; 0xffffffff
6000682e:	e7fa      	b.n	60006826 <fclose+0x4e>

60006830 <remove>:
60006830:	b510      	push	{r4, lr}
60006832:	4604      	mov	r4, r0
60006834:	f7ff ff78 	bl	60006728 <strlen>
60006838:	4601      	mov	r1, r0
6000683a:	4620      	mov	r0, r4
6000683c:	e8bd 4010 	ldmia.w	sp!, {r4, lr}
60006840:	f000 b9fc 	b.w	60006c3c <__sys_remove>

60006844 <_do_fflush>:
60006844:	68c3      	ldr	r3, [r0, #12]
60006846:	b570      	push	{r4, r5, r6, lr}
60006848:	f013 0603 	ands.w	r6, r3, #3
6000684c:	4604      	mov	r4, r0
6000684e:	d011      	beq.n	60006874 <_do_fflush+0x30>
60006850:	069b      	lsls	r3, r3, #26
60006852:	d511      	bpl.n	60006878 <_do_fflush+0x34>
60006854:	6a85      	ldr	r5, [r0, #40]	; 0x28
60006856:	f000 f83e 	bl	600068d6 <_deferredlazyseek>
6000685a:	68e3      	ldr	r3, [r4, #12]
6000685c:	4620      	mov	r0, r4
6000685e:	f423 5340 	bic.w	r3, r3, #12288	; 0x3000
60006862:	60e3      	str	r3, [r4, #12]
60006864:	f000 f80e 	bl	60006884 <_fflush>
60006868:	2200      	movs	r2, #0
6000686a:	4606      	mov	r6, r0
6000686c:	4629      	mov	r1, r5
6000686e:	4620      	mov	r0, r4
60006870:	f7ff fe40 	bl	600064f4 <fseek>
60006874:	4630      	mov	r0, r6
60006876:	bd70      	pop	{r4, r5, r6, pc}
60006878:	6981      	ldr	r1, [r0, #24]
6000687a:	6805      	ldr	r5, [r0, #0]
6000687c:	440d      	add	r5, r1
6000687e:	6901      	ldr	r1, [r0, #16]
60006880:	1a6d      	subs	r5, r5, r1
60006882:	e7ea      	b.n	6000685a <_do_fflush+0x16>

60006884 <_fflush>:
60006884:	b538      	push	{r3, r4, r5, lr}
60006886:	6801      	ldr	r1, [r0, #0]
60006888:	4604      	mov	r4, r0
6000688a:	6905      	ldr	r5, [r0, #16]
6000688c:	6ac3      	ldr	r3, [r0, #44]	; 0x2c
6000688e:	68c0      	ldr	r0, [r0, #12]
60006890:	f420 2200 	bic.w	r2, r0, #524288	; 0x80000
60006894:	60e2      	str	r2, [r4, #12]
60006896:	f000 0282 	and.w	r2, r0, #130	; 0x82
6000689a:	2a02      	cmp	r2, #2
6000689c:	d002      	beq.n	600068a4 <_fflush+0x20>
6000689e:	f04f 30ff 	mov.w	r0, #4294967295	; 0xffffffff
600068a2:	bd38      	pop	{r3, r4, r5, pc}
600068a4:	f410 3080 	ands.w	r0, r0, #65536	; 0x10000
600068a8:	d0fb      	beq.n	600068a2 <_fflush+0x1e>
600068aa:	4299      	cmp	r1, r3
600068ac:	bf38      	it	cc
600068ae:	4619      	movcc	r1, r3
600068b0:	428d      	cmp	r5, r1
600068b2:	d108      	bne.n	600068c6 <_fflush+0x42>
600068b4:	68e3      	ldr	r3, [r4, #12]
600068b6:	2000      	movs	r0, #0
600068b8:	62e5      	str	r5, [r4, #44]	; 0x2c
600068ba:	f423 3380 	bic.w	r3, r3, #65536	; 0x10000
600068be:	6025      	str	r5, [r4, #0]
600068c0:	60a0      	str	r0, [r4, #8]
600068c2:	60e3      	str	r3, [r4, #12]
600068c4:	e7ed      	b.n	600068a2 <_fflush+0x1e>
600068c6:	4622      	mov	r2, r4
600068c8:	1b49      	subs	r1, r1, r5
600068ca:	4628      	mov	r0, r5
600068cc:	f7ff feb4 	bl	60006638 <_Cwritebuf>
600068d0:	2800      	cmp	r0, #0
600068d2:	d0ef      	beq.n	600068b4 <_fflush+0x30>
600068d4:	e7e3      	b.n	6000689e <_fflush+0x1a>

600068d6 <_deferredlazyseek>:
600068d6:	68c3      	ldr	r3, [r0, #12]
600068d8:	6982      	ldr	r2, [r0, #24]
600068da:	f023 0320 	bic.w	r3, r3, #32
600068de:	b510      	push	{r4, lr}
600068e0:	60c3      	str	r3, [r0, #12]
600068e2:	4604      	mov	r4, r0
600068e4:	6a83      	ldr	r3, [r0, #40]	; 0x28
600068e6:	429a      	cmp	r2, r3
600068e8:	d00e      	beq.n	60006908 <_deferredlazyseek+0x32>
600068ea:	f7ff ffcb 	bl	60006884 <_fflush>
600068ee:	68e3      	ldr	r3, [r4, #12]
600068f0:	f423 5340 	bic.w	r3, r3, #12288	; 0x3000
600068f4:	f023 0310 	bic.w	r3, r3, #16
600068f8:	f043 0310 	orr.w	r3, r3, #16
600068fc:	60e3      	str	r3, [r4, #12]
600068fe:	6aa3      	ldr	r3, [r4, #40]	; 0x28
60006900:	61a3      	str	r3, [r4, #24]
60006902:	6923      	ldr	r3, [r4, #16]
60006904:	62e3      	str	r3, [r4, #44]	; 0x2c
60006906:	6023      	str	r3, [r4, #0]
60006908:	68e3      	ldr	r3, [r4, #12]
6000690a:	f423 4380 	bic.w	r3, r3, #16384	; 0x4000
6000690e:	f023 0340 	bic.w	r3, r3, #64	; 0x40
60006912:	60e3      	str	r3, [r4, #12]
60006914:	bd10      	pop	{r4, pc}

60006916 <__aeabi_ldivmod>:
60006916:	f013 4c00 	ands.w	ip, r3, #2147483648	; 0x80000000
6000691a:	bf1e      	ittt	ne
6000691c:	425b      	negne	r3, r3
6000691e:	f1d2 0200 	rsbsne	r2, r2, #0
60006922:	3b01      	subne	r3, #1
60006924:	f011 4f00 	tst.w	r1, #2147483648	; 0x80000000
60006928:	f000 800a 	beq.w	60006940 <__bhs_ldivmod1>
6000692c:	f08c 4c40 	eor.w	ip, ip, #3221225472	; 0xc0000000
60006930:	4249      	negs	r1, r1
60006932:	4240      	negs	r0, r0
60006934:	f161 0100 	sbc.w	r1, r1, #0
60006938:	f000 b802 	b.w	60006940 <__bhs_ldivmod1>

6000693c <__aeabi_uldivmod>:
6000693c:	f05f 0c00 	movs.w	ip, #0

60006940 <__bhs_ldivmod1>:
60006940:	b530      	push	{r4, r5, lr}
60006942:	001c      	movs	r4, r3
60006944:	d122      	bne.n	6000698c <ldiv64>
60006946:	0012      	movs	r2, r2
60006948:	d06f      	beq.n	60006a2a <ldiv_divzero>
6000694a:	4291      	cmp	r1, r2
6000694c:	d306      	bcc.n	6000695c <ldiv32>
6000694e:	4605      	mov	r5, r0
60006950:	4608      	mov	r0, r1
60006952:	2100      	movs	r1, #0
60006954:	f000 f86f 	bl	60006a36 <udiv6432>
60006958:	4604      	mov	r4, r0
6000695a:	4628      	mov	r0, r5

6000695c <ldiv32>:
6000695c:	f000 f86b 	bl	60006a36 <udiv6432>
60006960:	460a      	mov	r2, r1
60006962:	4621      	mov	r1, r4

60006964 <ldiv_return>:
60006964:	e8bd 4030 	ldmia.w	sp!, {r4, r5, lr}
60006968:	f01c 4f40 	tst.w	ip, #3221225472	; 0xc0000000
6000696c:	bf08      	it	eq
6000696e:	4770      	bxeq	lr
60006970:	d503      	bpl.n	6000697a <ldiv_sign>
60006972:	4249      	negs	r1, r1
60006974:	4240      	negs	r0, r0
60006976:	f161 0100 	sbc.w	r1, r1, #0

6000697a <ldiv_sign>:
6000697a:	ea5f 0c8c 	movs.w	ip, ip, lsl #2
6000697e:	bf38      	it	cc
60006980:	4770      	bxcc	lr
60006982:	425b      	negs	r3, r3
60006984:	4252      	negs	r2, r2
60006986:	f163 0300 	sbc.w	r3, r3, #0
6000698a:	4770      	bx	lr

6000698c <ldiv64>:
6000698c:	d442      	bmi.n	60006a14 <ldiv_res01>
6000698e:	0c1c      	lsrs	r4, r3, #16
60006990:	bf04      	itt	eq
60006992:	041b      	lsleq	r3, r3, #16
60006994:	f10c 0c10 	addeq.w	ip, ip, #16
60006998:	f013 4f7f 	tst.w	r3, #4278190080	; 0xff000000
6000699c:	bf04      	itt	eq
6000699e:	021b      	lsleq	r3, r3, #8
600069a0:	f10c 0c08 	addeq.w	ip, ip, #8
600069a4:	f013 4f70 	tst.w	r3, #4026531840	; 0xf0000000
600069a8:	bf04      	itt	eq
600069aa:	011b      	lsleq	r3, r3, #4
600069ac:	f10c 0c04 	addeq.w	ip, ip, #4
600069b0:	f013 4f40 	tst.w	r3, #3221225472	; 0xc0000000
600069b4:	bf04      	itt	eq
600069b6:	f10c 0c02 	addeq.w	ip, ip, #2
600069ba:	ea5f 0383 	movseq.w	r3, r3, lsl #2
600069be:	bf5c      	itt	pl
600069c0:	f10c 0c01 	addpl.w	ip, ip, #1
600069c4:	005b      	lslpl	r3, r3, #1
600069c6:	f1cc 0e20 	rsb	lr, ip, #32
600069ca:	fa22 f40e 	lsr.w	r4, r2, lr
600069ce:	4323      	orrs	r3, r4
600069d0:	fa02 f20c 	lsl.w	r2, r2, ip
600069d4:	fa00 f50c 	lsl.w	r5, r0, ip
600069d8:	fa20 f00e 	lsr.w	r0, r0, lr
600069dc:	fa01 f40c 	lsl.w	r4, r1, ip
600069e0:	4320      	orrs	r0, r4
600069e2:	fa21 f10e 	lsr.w	r1, r1, lr
600069e6:	4614      	mov	r4, r2
600069e8:	461a      	mov	r2, r3
600069ea:	f000 f824 	bl	60006a36 <udiv6432>
600069ee:	fba4 2300 	umull	r2, r3, r4, r0
600069f2:	1aaa      	subs	r2, r5, r2
600069f4:	eb71 0303 	sbcs.w	r3, r1, r3
600069f8:	bf3c      	itt	cc
600069fa:	191b      	addcc	r3, r3, r4
600069fc:	3801      	subcc	r0, #1
600069fe:	f1cc 0e20 	rsb	lr, ip, #32
60006a02:	fa22 f20c 	lsr.w	r2, r2, ip
60006a06:	fa03 f40e 	lsl.w	r4, r3, lr
60006a0a:	4322      	orrs	r2, r4
60006a0c:	fa23 f30c 	lsr.w	r3, r3, ip
60006a10:	2100      	movs	r1, #0
60006a12:	e7a7      	b.n	60006964 <ldiv_return>

60006a14 <ldiv_res01>:
60006a14:	1a82      	subs	r2, r0, r2
60006a16:	eb71 0303 	sbcs.w	r3, r1, r3
60006a1a:	bf3c      	itt	cc
60006a1c:	4602      	movcc	r2, r0
60006a1e:	460b      	movcc	r3, r1
60006a20:	f04f 0100 	mov.w	r1, #0
60006a24:	f141 0000 	adc.w	r0, r1, #0
60006a28:	e79c      	b.n	60006964 <ldiv_return>

60006a2a <ldiv_divzero>:
60006a2a:	2000      	movs	r0, #0
60006a2c:	2100      	movs	r1, #0
60006a2e:	e8bd 4030 	ldmia.w	sp!, {r4, r5, lr}
60006a32:	f000 b83d 	b.w	60006ab0 <__aeabi_idiv0>

60006a36 <udiv6432>:
60006a36:	2304      	movs	r3, #4
60006a38:	ebb1 2f12 	cmp.w	r1, r2, lsr #8
60006a3c:	d209      	bcs.n	60006a52 <udiv6432_entry>

60006a3e <udiv6432_loop1>:
60006a3e:	0209      	lsls	r1, r1, #8
60006a40:	ea41 6110 	orr.w	r1, r1, r0, lsr #24
60006a44:	0200      	lsls	r0, r0, #8
60006a46:	3b01      	subs	r3, #1
60006a48:	bf08      	it	eq
60006a4a:	4770      	bxeq	lr
60006a4c:	ebb1 2f12 	cmp.w	r1, r2, lsr #8
60006a50:	d3f5      	bcc.n	60006a3e <udiv6432_loop1>

60006a52 <udiv6432_entry>:
60006a52:	1800      	adds	r0, r0, r0

60006a54 <udiv6432_loop>:
60006a54:	4149      	adcs	r1, r1
60006a56:	bf34      	ite	cc
60006a58:	4291      	cmpcc	r1, r2
60006a5a:	1a89      	subcs	r1, r1, r2
60006a5c:	4140      	adcs	r0, r0
60006a5e:	4149      	adcs	r1, r1
60006a60:	bf34      	ite	cc
60006a62:	4291      	cmpcc	r1, r2
60006a64:	1a89      	subcs	r1, r1, r2
60006a66:	4140      	adcs	r0, r0
60006a68:	4149      	adcs	r1, r1
60006a6a:	bf34      	ite	cc
60006a6c:	4291      	cmpcc	r1, r2
60006a6e:	1a89      	subcs	r1, r1, r2
60006a70:	4140      	adcs	r0, r0
60006a72:	4149      	adcs	r1, r1
60006a74:	bf34      	ite	cc
60006a76:	4291      	cmpcc	r1, r2
60006a78:	1a89      	subcs	r1, r1, r2
60006a7a:	4140      	adcs	r0, r0
60006a7c:	4149      	adcs	r1, r1
60006a7e:	bf34      	ite	cc
60006a80:	4291      	cmpcc	r1, r2
60006a82:	1a89      	subcs	r1, r1, r2
60006a84:	4140      	adcs	r0, r0
60006a86:	4149      	adcs	r1, r1
60006a88:	bf34      	ite	cc
60006a8a:	4291      	cmpcc	r1, r2
60006a8c:	1a89      	subcs	r1, r1, r2
60006a8e:	4140      	adcs	r0, r0
60006a90:	4149      	adcs	r1, r1
60006a92:	bf34      	ite	cc
60006a94:	4291      	cmpcc	r1, r2
60006a96:	1a89      	subcs	r1, r1, r2
60006a98:	4140      	adcs	r0, r0
60006a9a:	4149      	adcs	r1, r1
60006a9c:	bf34      	ite	cc
60006a9e:	4291      	cmpcc	r1, r2
60006aa0:	1a89      	subcs	r1, r1, r2
60006aa2:	4140      	adcs	r0, r0
60006aa4:	f1a3 0301 	sub.w	r3, r3, #1
60006aa8:	f013 0f0f 	tst.w	r3, #15
60006aac:	d1d2      	bne.n	60006a54 <udiv6432_loop>
60006aae:	4770      	bx	lr

60006ab0 <__aeabi_idiv0>:
60006ab0:	4770      	bx	lr

60006ab2 <__aeabi_d2lz>:
60006ab2:	b570      	push	{r4, r5, r6, lr}
60006ab4:	460c      	mov	r4, r1
60006ab6:	02c9      	lsls	r1, r1, #11
60006ab8:	f3c4 530a 	ubfx	r3, r4, #20, #11
60006abc:	ea41 5150 	orr.w	r1, r1, r0, lsr #21
60006ac0:	0066      	lsls	r6, r4, #1
60006ac2:	f5c3 6283 	rsb	r2, r3, #1048	; 0x418
60006ac6:	f5c3 6587 	rsb	r5, r3, #1080	; 0x438
60006aca:	f041 4100 	orr.w	r1, r1, #2147483648	; 0x80000000
60006ace:	3206      	adds	r2, #6
60006ad0:	3506      	adds	r5, #6
60006ad2:	2a00      	cmp	r2, #0
60006ad4:	bfb3      	iteet	lt
60006ad6:	02c0      	lsllt	r0, r0, #11
60006ad8:	fa21 f002 	lsrge.w	r0, r1, r2
60006adc:	2100      	movge	r1, #0
60006ade:	fa20 f205 	lsrlt.w	r2, r0, r5
60006ae2:	bfbf      	itttt	lt
60006ae4:	f2a3 401e 	subwlt	r0, r3, #1054	; 0x41e
60006ae8:	fa01 f000 	lsllt.w	r0, r1, r0
60006aec:	40e9      	lsrlt	r1, r5
60006aee:	4310      	orrlt	r0, r2
60006af0:	2c00      	cmp	r4, #0
60006af2:	da02      	bge.n	60006afa <__aeabi_d2lz+0x48>
60006af4:	4240      	negs	r0, r0
60006af6:	b968      	cbnz	r0, 60006b14 <__aeabi_d2lz+0x62>
60006af8:	4249      	negs	r1, r1
60006afa:	2dff      	cmp	r5, #255	; 0xff
60006afc:	d909      	bls.n	60006b12 <__aeabi_d2lz+0x60>
60006afe:	f014 4080 	ands.w	r0, r4, #1073741824	; 0x40000000
60006b02:	d00a      	beq.n	60006b1a <__aeabi_d2lz+0x68>
60006b04:	f516 1f00 	cmn.w	r6, #2097152	; 0x200000
60006b08:	d806      	bhi.n	60006b18 <__aeabi_d2lz+0x66>
60006b0a:	0fe0      	lsrs	r0, r4, #31
60006b0c:	3801      	subs	r0, #1
60006b0e:	f100 4100 	add.w	r1, r0, #2147483648	; 0x80000000
60006b12:	bd70      	pop	{r4, r5, r6, pc}
60006b14:	43c9      	mvns	r1, r1
60006b16:	e7f0      	b.n	60006afa <__aeabi_d2lz+0x48>
60006b18:	2000      	movs	r0, #0
60006b1a:	4601      	mov	r1, r0
60006b1c:	e7f9      	b.n	60006b12 <__aeabi_d2lz+0x60>

60006b1e <__bhs_ul2d>:
60006b1e:	b530      	push	{r4, r5, lr}
60006b20:	ea50 0401 	orrs.w	r4, r0, r1
60006b24:	4603      	mov	r3, r0
60006b26:	d102      	bne.n	60006b2e <__bhs_ul2d+0x10>
60006b28:	2000      	movs	r0, #0
60006b2a:	2100      	movs	r1, #0
60006b2c:	bd30      	pop	{r4, r5, pc}
60006b2e:	b119      	cbz	r1, 60006b38 <__bhs_ul2d+0x1a>
60006b30:	460b      	mov	r3, r1
60006b32:	f102 7200 	add.w	r2, r2, #33554432	; 0x2000000
60006b36:	4601      	mov	r1, r0
60006b38:	0c18      	lsrs	r0, r3, #16
60006b3a:	bf09      	itett	eq
60006b3c:	0c08      	lsreq	r0, r1, #16
60006b3e:	f102 7280 	addne.w	r2, r2, #16777216	; 0x1000000
60006b42:	0409      	lsleq	r1, r1, #16
60006b44:	ea40 4303 	orreq.w	r3, r0, r3, lsl #16
60006b48:	0e18      	lsrs	r0, r3, #24
60006b4a:	bf09      	itett	eq
60006b4c:	0e08      	lsreq	r0, r1, #24
60006b4e:	f502 0200 	addne.w	r2, r2, #8388608	; 0x800000
60006b52:	0209      	lsleq	r1, r1, #8
60006b54:	ea40 2303 	orreq.w	r3, r0, r3, lsl #8
60006b58:	0f18      	lsrs	r0, r3, #28
60006b5a:	bf09      	itett	eq
60006b5c:	0f08      	lsreq	r0, r1, #28
60006b5e:	f502 0280 	addne.w	r2, r2, #4194304	; 0x400000
60006b62:	0109      	lsleq	r1, r1, #4
60006b64:	ea40 1303 	orreq.w	r3, r0, r3, lsl #4
60006b68:	0f98      	lsrs	r0, r3, #30
60006b6a:	bf09      	itett	eq
60006b6c:	0f88      	lsreq	r0, r1, #30
60006b6e:	f502 1200 	addne.w	r2, r2, #2097152	; 0x200000
60006b72:	0089      	lsleq	r1, r1, #2
60006b74:	ea40 0383 	orreq.w	r3, r0, r3, lsl #2
60006b78:	2b00      	cmp	r3, #0
60006b7a:	bfa9      	itett	ge
60006b7c:	0fc8      	lsrge	r0, r1, #31
60006b7e:	f502 1280 	addlt.w	r2, r2, #1048576	; 0x100000
60006b82:	0049      	lslge	r1, r1, #1
60006b84:	ea40 0343 	orrge.w	r3, r0, r3, lsl #1
60006b88:	f511 6180 	adds.w	r1, r1, #1024	; 0x400
60006b8c:	bf28      	it	cs
60006b8e:	3301      	addcs	r3, #1
60006b90:	0548      	lsls	r0, r1, #21
60006b92:	eb02 25e3 	add.w	r5, r2, r3, asr #11
60006b96:	bf08      	it	eq
60006b98:	f421 6100 	biceq.w	r1, r1, #2048	; 0x800
60006b9c:	055b      	lsls	r3, r3, #21
60006b9e:	ea43 24d1 	orr.w	r4, r3, r1, lsr #11
60006ba2:	4629      	mov	r1, r5
60006ba4:	4620      	mov	r0, r4
60006ba6:	e7c1      	b.n	60006b2c <__bhs_ul2d+0xe>

60006ba8 <__aeabi_l2d>:
60006ba8:	2900      	cmp	r1, #0
60006baa:	f001 4200 	and.w	r2, r1, #2147483648	; 0x80000000
60006bae:	da03      	bge.n	60006bb8 <__aeabi_l2d+0x10>
60006bb0:	4243      	negs	r3, r0
60006bb2:	b928      	cbnz	r0, 60006bc0 <__aeabi_l2d+0x18>
60006bb4:	4249      	negs	r1, r1
60006bb6:	4618      	mov	r0, r3
60006bb8:	f102 4280 	add.w	r2, r2, #1073741824	; 0x40000000
60006bbc:	f7ff bfaf 	b.w	60006b1e <__bhs_ul2d>
60006bc0:	43c9      	mvns	r1, r1
60006bc2:	e7f8      	b.n	60006bb6 <__aeabi_l2d+0xe>

60006bc4 <__aeabi_memcpy>:
60006bc4:	ea40 0301 	orr.w	r3, r0, r1
60006bc8:	07db      	lsls	r3, r3, #31
60006bca:	4603      	mov	r3, r0
60006bcc:	d40c      	bmi.n	60006be8 <copy1>

60006bce <__aeabi_memcpy4>:
60006bce:	4603      	mov	r3, r0
60006bd0:	3a04      	subs	r2, #4

60006bd2 <copy4>:
60006bd2:	bf22      	ittt	cs
60006bd4:	f851 cb04 	ldrcs.w	ip, [r1], #4
60006bd8:	f843 cb04 	strcs.w	ip, [r3], #4
60006bdc:	f1b2 0204 	subscs.w	r2, r2, #4
60006be0:	d2f7      	bcs.n	60006bd2 <copy4>
60006be2:	3204      	adds	r2, #4
60006be4:	bf08      	it	eq
60006be6:	4770      	bxeq	lr

60006be8 <copy1>:
60006be8:	3a01      	subs	r2, #1
60006bea:	bf24      	itt	cs
60006bec:	f811 cb01 	ldrbcs.w	ip, [r1], #1
60006bf0:	f803 cb01 	strbcs.w	ip, [r3], #1
60006bf4:	d8f8      	bhi.n	60006be8 <copy1>
60006bf6:	4770      	bx	lr

60006bf8 <__aeabi_lowlevel_memset>:
60006bf8:	4603      	mov	r3, r0
60006bfa:	f013 0f03 	tst.w	r3, #3
60006bfe:	d10e      	bne.n	60006c1e <memset1a>
60006c00:	f001 01ff 	and.w	r1, r1, #255	; 0xff
60006c04:	ea41 2101 	orr.w	r1, r1, r1, lsl #8
60006c08:	ea41 4101 	orr.w	r1, r1, r1, lsl #16

60006c0c <__bhs_memset4>:
60006c0c:	3a04      	subs	r2, #4

60006c0e <memset4>:
60006c0e:	bf24      	itt	cs
60006c10:	f843 1b04 	strcs.w	r1, [r3], #4
60006c14:	f1b2 0204 	subscs.w	r2, r2, #4
60006c18:	d2f9      	bcs.n	60006c0e <memset4>

60006c1a <memset1>:
60006c1a:	f102 0204 	add.w	r2, r2, #4

60006c1e <memset1a>:
60006c1e:	3a01      	subs	r2, #1
60006c20:	bf24      	itt	cs
60006c22:	f803 1b01 	strbcs.w	r1, [r3], #1
60006c26:	e7fa      	bcs.n	60006c1e <memset1a>
60006c28:	4770      	bx	lr

60006c2a <__sys_close>:
60006c2a:	f04f 30ff 	mov.w	r0, #4294967295	; 0xffffffff
60006c2e:	4770      	bx	lr

60006c30 <__sys_flen>:
60006c30:	f04f 30ff 	mov.w	r0, #4294967295	; 0xffffffff
60006c34:	4770      	bx	lr

60006c36 <__sys_istty>:
60006c36:	f04f 30ff 	mov.w	r0, #4294967295	; 0xffffffff
60006c3a:	4770      	bx	lr

60006c3c <__sys_remove>:
60006c3c:	f04f 30ff 	mov.w	r0, #4294967295	; 0xffffffff
60006c40:	4770      	bx	lr

60006c42 <__sys_seek>:
60006c42:	f04f 30ff 	mov.w	r0, #4294967295	; 0xffffffff
60006c46:	4770      	bx	lr

60006c48 <__sys_tmpnam>:
60006c48:	f04f 30ff 	mov.w	r0, #4294967295	; 0xffffffff
60006c4c:	4770      	bx	lr

60006c4e <__sys_write>:
60006c4e:	4610      	mov	r0, r2
60006c50:	4770      	bx	lr
60006c52:	ffff ffff 			; <UNDEFINED> instruction: 0xffffffff
60006c56:	Address 0x0000000060006c56 is out of bounds.


60006c58 <a1.1>:
60006c58:	0000 0000 0000 3ff0 90da a2a4 a4af 3fee     .......?.......?
60006c68:	a487 dcfb 5818 3fed 529c dd85 199b 3fec     .....X.?.R.....?
60006c78:	d3ad 995a e89f 3fea f090 82a3 c491 3fe9     ..Z....?.......?
60006c88:	a0db 422a ace5 3fe8 0187 73eb a114 3fe7     ..*B...?...s...?
60006c98:	3bcd 667f a09e 3fe6 5429 dd48 ab07 3fe5     .;.f...?)TH....?
60006ca8:	2a27 d536 bfda 3fe4 3422 4c12 dea6 3fe3     '*6....?"4.L...?
60006cb8:	b715 0a31 06fe 3fe3 6238 6e75 387a 3fe2     ..1....?8bunz8.?
60006cc8:	517b 3c7d 72b8 3fe1 890f 6cf9 b558 3fe0     {Q}<.r.?...lX..?
60006cd8:	0000 0000 0000 3fe0                         .......?

60006ce0 <a2.0>:
60006ce0:	0000 179c 9c23 bc8e 0000 8950 1065 3c71     ....#.....P.e.q<
60006cf0:	0000 b070 7c46 3c6c 0000 ee04 1577 bc74     ..p.F|l<....w.t.
60006d00:	0000 0546 324c 3c86 0000 11f0 da09 3c7a     ..F.L2.<......z<
60006d10:	0000 b6c8 b077 3c89 0000 4adc a62e 3c88     ....w..<...J...<
60006d20:	6e49 6566 6572 636e 2065 6974 656d 3d20     Inference time =
60006d30:	2520 756c 2820 736d 0d29 000a 6f43 666e      %lu (ms)...Conf
60006d40:	6469 6e65 6563 3d20 3020 252e 3330 0d75     idence = 0.%03u.
60006d50:	000a 0000 6f54 3170 6320 616c 7373 3d20     ....Top1 class =
60006d60:	2520 756c 0a0d ff00                          %lu....

60006d68 <enetRefClkFreq.1>:
60006d68:	7840 017d f080 02fa e100 05f5 5940 0773     @x}.........@Ys.

60006d78 <s_lpuartBases>:
60006d78:	0000 0000 4000 4018 8000 4018 c000 4018     .....@.@...@...@
60006d88:	0000 4019 4000 4019 8000 4019 c000 4019     ...@.@.@...@...@
60006d98:	0000 401a                                   ...@

60006d9c <s_lpuartClock>:
60006d9c:	ffff 0518 001c 000c 0118 0302 0306 051a     ................
60006dac:	060e ffff                                   ....

60006db0 <s_LpuartAdapterBase>:
60006db0:	0000 0000 4000 4018 8000 4018 c000 4018     .....@.@...@...@
60006dc0:	0000 4019 4000 4019 8000 4019 c000 4019     ...@.@.@...@...@
60006dd0:	0000 401a                                   ...@

60006dd4 <armPllConfig_BOARD_BootClockRUN>:
60006dd4:	0064 0000 0000 0000                         d.......

60006ddc <__num_Ciob_streams>:
60006ddc:	0003 0000 0072 0077                         ....r.w.
